
UserCode.elf:     file format elf32-littlearm

Sections:
Idx Name          Size      VMA       LMA       File off  Algn
  0 .isr_vector   000001b0  08000000  08000000  00010000  2**2
                  CONTENTS, ALLOC, LOAD, READONLY, DATA
  1 .text         000013a8  080001b0  080001b0  000101b0  2**2
                  CONTENTS, ALLOC, LOAD, READONLY, CODE
  2 .data         00000000  20000000  08001558  00020000  2**0
                  CONTENTS, ALLOC, LOAD, DATA
  3 .bss          00000080  20000000  08001558  00020000  2**2
                  ALLOC
  4 .debug_info   00003bb9  00000000  00000000  00020000  2**0
                  CONTENTS, READONLY, DEBUGGING, OCTETS
  5 .debug_abbrev 0000098a  00000000  00000000  00023bb9  2**0
                  CONTENTS, READONLY, DEBUGGING, OCTETS
  6 .debug_loc    00001a38  00000000  00000000  00024543  2**0
                  CONTENTS, READONLY, DEBUGGING, OCTETS
  7 .debug_aranges 00000080  00000000  00000000  00025f7b  2**0
                  CONTENTS, READONLY, DEBUGGING, OCTETS
  8 .debug_line   00000b34  00000000  00000000  00025ffb  2**0
                  CONTENTS, READONLY, DEBUGGING, OCTETS
  9 .debug_str    00000d28  00000000  00000000  00026b2f  2**0
                  CONTENTS, READONLY, DEBUGGING, OCTETS
 10 .comment      000000a5  00000000  00000000  00027857  2**0
                  CONTENTS, READONLY
 11 .ARM.attributes 00000034  00000000  00000000  000278fc  2**0
                  CONTENTS, READONLY
 12 .debug_frame  00000c7c  00000000  00000000  00027930  2**2
                  CONTENTS, READONLY, DEBUGGING, OCTETS

Disassembly of section .text:

080001b0 <fnReset_IRQ>:
 80001b0:	b580      	push	{r7, lr}
 80001b2:	b082      	sub	sp, #8
 80001b4:	af00      	add	r7, sp, #0
 80001b6:	4b78      	ldr	r3, [pc, #480]	; (8000398 <fnReset_IRQ+0x1e8>)
 80001b8:	603b      	str	r3, [r7, #0]
 80001ba:	e004      	b.n	80001c6 <fnReset_IRQ+0x16>
 80001bc:	683b      	ldr	r3, [r7, #0]
 80001be:	1d1a      	adds	r2, r3, #4
 80001c0:	603a      	str	r2, [r7, #0]
 80001c2:	2200      	movs	r2, #0
 80001c4:	601a      	str	r2, [r3, #0]
 80001c6:	683b      	ldr	r3, [r7, #0]
 80001c8:	4a74      	ldr	r2, [pc, #464]	; (800039c <fnReset_IRQ+0x1ec>)
 80001ca:	4293      	cmp	r3, r2
 80001cc:	d3f6      	bcc.n	80001bc <fnReset_IRQ+0xc>
 80001ce:	4b74      	ldr	r3, [pc, #464]	; (80003a0 <fnReset_IRQ+0x1f0>)
 80001d0:	607b      	str	r3, [r7, #4]
 80001d2:	4b74      	ldr	r3, [pc, #464]	; (80003a4 <fnReset_IRQ+0x1f4>)
 80001d4:	603b      	str	r3, [r7, #0]
 80001d6:	e007      	b.n	80001e8 <fnReset_IRQ+0x38>
 80001d8:	687a      	ldr	r2, [r7, #4]
 80001da:	1d13      	adds	r3, r2, #4
 80001dc:	607b      	str	r3, [r7, #4]
 80001de:	683b      	ldr	r3, [r7, #0]
 80001e0:	1d19      	adds	r1, r3, #4
 80001e2:	6039      	str	r1, [r7, #0]
 80001e4:	6812      	ldr	r2, [r2, #0]
 80001e6:	601a      	str	r2, [r3, #0]
 80001e8:	683b      	ldr	r3, [r7, #0]
 80001ea:	4a6f      	ldr	r2, [pc, #444]	; (80003a8 <fnReset_IRQ+0x1f8>)
 80001ec:	4293      	cmp	r3, r2
 80001ee:	d3f3      	bcc.n	80001d8 <fnReset_IRQ+0x28>
 80001f0:	4b6e      	ldr	r3, [pc, #440]	; (80003ac <fnReset_IRQ+0x1fc>)
 80001f2:	2205      	movs	r2, #5
 80001f4:	701a      	strb	r2, [r3, #0]
 80001f6:	df00      	svc	0
 80001f8:	4b6d      	ldr	r3, [pc, #436]	; (80003b0 <fnReset_IRQ+0x200>)
 80001fa:	f240 7204 	movw	r2, #1796	; 0x704
 80001fe:	601a      	str	r2, [r3, #0]
 8000200:	bf00      	nop
 8000202:	bf00      	nop
 8000204:	bf00      	nop
 8000206:	bf00      	nop
 8000208:	bf00      	nop
 800020a:	bf00      	nop
 800020c:	bf00      	nop
 800020e:	bf00      	nop
 8000210:	bf00      	nop
 8000212:	bf00      	nop
 8000214:	bf00      	nop
 8000216:	bf00      	nop
 8000218:	4b66      	ldr	r3, [pc, #408]	; (80003b4 <fnReset_IRQ+0x204>)
 800021a:	2200      	movs	r2, #0
 800021c:	601a      	str	r2, [r3, #0]
 800021e:	4b66      	ldr	r3, [pc, #408]	; (80003b8 <fnReset_IRQ+0x208>)
 8000220:	f240 727f 	movw	r2, #1919	; 0x77f
 8000224:	601a      	str	r2, [r3, #0]
 8000226:	4b65      	ldr	r3, [pc, #404]	; (80003bc <fnReset_IRQ+0x20c>)
 8000228:	f04f 32ff 	mov.w	r2, #4294967295	; 0xffffffff
 800022c:	601a      	str	r2, [r3, #0]
 800022e:	4b63      	ldr	r3, [pc, #396]	; (80003bc <fnReset_IRQ+0x20c>)
 8000230:	2200      	movs	r2, #0
 8000232:	601a      	str	r2, [r3, #0]
 8000234:	4b62      	ldr	r3, [pc, #392]	; (80003c0 <fnReset_IRQ+0x210>)
 8000236:	f04f 32ff 	mov.w	r2, #4294967295	; 0xffffffff
 800023a:	601a      	str	r2, [r3, #0]
 800023c:	4b60      	ldr	r3, [pc, #384]	; (80003c0 <fnReset_IRQ+0x210>)
 800023e:	2200      	movs	r2, #0
 8000240:	601a      	str	r2, [r3, #0]
 8000242:	4b60      	ldr	r3, [pc, #384]	; (80003c4 <fnReset_IRQ+0x214>)
 8000244:	f04f 32ff 	mov.w	r2, #4294967295	; 0xffffffff
 8000248:	601a      	str	r2, [r3, #0]
 800024a:	4b5e      	ldr	r3, [pc, #376]	; (80003c4 <fnReset_IRQ+0x214>)
 800024c:	2200      	movs	r2, #0
 800024e:	601a      	str	r2, [r3, #0]
 8000250:	4b5d      	ldr	r3, [pc, #372]	; (80003c8 <fnReset_IRQ+0x218>)
 8000252:	f04f 32ff 	mov.w	r2, #4294967295	; 0xffffffff
 8000256:	601a      	str	r2, [r3, #0]
 8000258:	4b5b      	ldr	r3, [pc, #364]	; (80003c8 <fnReset_IRQ+0x218>)
 800025a:	2200      	movs	r2, #0
 800025c:	601a      	str	r2, [r3, #0]
 800025e:	4b5b      	ldr	r3, [pc, #364]	; (80003cc <fnReset_IRQ+0x21c>)
 8000260:	f04f 32ff 	mov.w	r2, #4294967295	; 0xffffffff
 8000264:	601a      	str	r2, [r3, #0]
 8000266:	4b59      	ldr	r3, [pc, #356]	; (80003cc <fnReset_IRQ+0x21c>)
 8000268:	2200      	movs	r2, #0
 800026a:	601a      	str	r2, [r3, #0]
 800026c:	4b58      	ldr	r3, [pc, #352]	; (80003d0 <fnReset_IRQ+0x220>)
 800026e:	f04f 32ff 	mov.w	r2, #4294967295	; 0xffffffff
 8000272:	601a      	str	r2, [r3, #0]
 8000274:	4b56      	ldr	r3, [pc, #344]	; (80003d0 <fnReset_IRQ+0x220>)
 8000276:	2200      	movs	r2, #0
 8000278:	601a      	str	r2, [r3, #0]
 800027a:	bf00      	nop
 800027c:	bf00      	nop
 800027e:	bf00      	nop
 8000280:	bf00      	nop
 8000282:	bf00      	nop
 8000284:	bf00      	nop
 8000286:	bf00      	nop
 8000288:	bf00      	nop
 800028a:	bf00      	nop
 800028c:	bf00      	nop
 800028e:	bf00      	nop
 8000290:	bf00      	nop
 8000292:	bf00      	nop
 8000294:	bf00      	nop
 8000296:	bf00      	nop
 8000298:	bf00      	nop
 800029a:	bf00      	nop
 800029c:	bf00      	nop
 800029e:	bf00      	nop
 80002a0:	bf00      	nop
 80002a2:	bf00      	nop
 80002a4:	bf00      	nop
 80002a6:	bf00      	nop
 80002a8:	bf00      	nop
 80002aa:	bf00      	nop
 80002ac:	bf00      	nop
 80002ae:	bf00      	nop
 80002b0:	bf00      	nop
 80002b2:	bf00      	nop
 80002b4:	bf00      	nop
 80002b6:	bf00      	nop
 80002b8:	bf00      	nop
 80002ba:	bf00      	nop
 80002bc:	bf00      	nop
 80002be:	bf00      	nop
 80002c0:	bf00      	nop
 80002c2:	bf00      	nop
 80002c4:	bf00      	nop
 80002c6:	bf00      	nop
 80002c8:	bf00      	nop
 80002ca:	bf00      	nop
 80002cc:	bf00      	nop
 80002ce:	bf00      	nop
 80002d0:	bf00      	nop
 80002d2:	bf00      	nop
 80002d4:	bf00      	nop
 80002d6:	bf00      	nop
 80002d8:	bf00      	nop
 80002da:	4b3e      	ldr	r3, [pc, #248]	; (80003d4 <fnReset_IRQ+0x224>)
 80002dc:	4a3e      	ldr	r2, [pc, #248]	; (80003d8 <fnReset_IRQ+0x228>)
 80002de:	601a      	str	r2, [r3, #0]
 80002e0:	4b3e      	ldr	r3, [pc, #248]	; (80003dc <fnReset_IRQ+0x22c>)
 80002e2:	4a3d      	ldr	r2, [pc, #244]	; (80003d8 <fnReset_IRQ+0x228>)
 80002e4:	601a      	str	r2, [r3, #0]
 80002e6:	bf00      	nop
 80002e8:	bf00      	nop
 80002ea:	bf00      	nop
 80002ec:	bf00      	nop
 80002ee:	bf00      	nop
 80002f0:	bf00      	nop
 80002f2:	bf00      	nop
 80002f4:	bf00      	nop
 80002f6:	bf00      	nop
 80002f8:	bf00      	nop
 80002fa:	bf00      	nop
 80002fc:	bf00      	nop
 80002fe:	4b38      	ldr	r3, [pc, #224]	; (80003e0 <fnReset_IRQ+0x230>)
 8000300:	681b      	ldr	r3, [r3, #0]
 8000302:	4a37      	ldr	r2, [pc, #220]	; (80003e0 <fnReset_IRQ+0x230>)
 8000304:	f443 7340 	orr.w	r3, r3, #768	; 0x300
 8000308:	6013      	str	r3, [r2, #0]
 800030a:	bf00      	nop
 800030c:	bf00      	nop
 800030e:	bf00      	nop
 8000310:	bf00      	nop
 8000312:	bf00      	nop
 8000314:	bf00      	nop
 8000316:	bf00      	nop
 8000318:	bf00      	nop
 800031a:	bf00      	nop
 800031c:	bf00      	nop
 800031e:	bf00      	nop
 8000320:	bf00      	nop
 8000322:	4b30      	ldr	r3, [pc, #192]	; (80003e4 <fnReset_IRQ+0x234>)
 8000324:	4a30      	ldr	r2, [pc, #192]	; (80003e8 <fnReset_IRQ+0x238>)
 8000326:	601a      	str	r2, [r3, #0]
 8000328:	4b30      	ldr	r3, [pc, #192]	; (80003ec <fnReset_IRQ+0x23c>)
 800032a:	4a31      	ldr	r2, [pc, #196]	; (80003f0 <fnReset_IRQ+0x240>)
 800032c:	601a      	str	r2, [r3, #0]
 800032e:	e010      	b.n	8000352 <fnReset_IRQ+0x1a2>
 8000330:	4b2e      	ldr	r3, [pc, #184]	; (80003ec <fnReset_IRQ+0x23c>)
 8000332:	681b      	ldr	r3, [r3, #0]
 8000334:	3b01      	subs	r3, #1
 8000336:	4a2d      	ldr	r2, [pc, #180]	; (80003ec <fnReset_IRQ+0x23c>)
 8000338:	6013      	str	r3, [r2, #0]
 800033a:	bf00      	nop
 800033c:	bf00      	nop
 800033e:	bf00      	nop
 8000340:	bf00      	nop
 8000342:	bf00      	nop
 8000344:	bf00      	nop
 8000346:	bf00      	nop
 8000348:	bf00      	nop
 800034a:	bf00      	nop
 800034c:	bf00      	nop
 800034e:	bf00      	nop
 8000350:	bf00      	nop
 8000352:	4b24      	ldr	r3, [pc, #144]	; (80003e4 <fnReset_IRQ+0x234>)
 8000354:	681b      	ldr	r3, [r3, #0]
 8000356:	f003 0302 	and.w	r3, r3, #2
 800035a:	2b00      	cmp	r3, #0
 800035c:	d103      	bne.n	8000366 <fnReset_IRQ+0x1b6>
 800035e:	4b23      	ldr	r3, [pc, #140]	; (80003ec <fnReset_IRQ+0x23c>)
 8000360:	681b      	ldr	r3, [r3, #0]
 8000362:	2b00      	cmp	r3, #0
 8000364:	d1e4      	bne.n	8000330 <fnReset_IRQ+0x180>
 8000366:	4b21      	ldr	r3, [pc, #132]	; (80003ec <fnReset_IRQ+0x23c>)
 8000368:	681b      	ldr	r3, [r3, #0]
 800036a:	2b00      	cmp	r3, #0
 800036c:	d006      	beq.n	800037c <fnReset_IRQ+0x1cc>
 800036e:	4b21      	ldr	r3, [pc, #132]	; (80003f4 <fnReset_IRQ+0x244>)
 8000370:	681b      	ldr	r3, [r3, #0]
 8000372:	f043 0301 	orr.w	r3, r3, #1
 8000376:	4a1f      	ldr	r2, [pc, #124]	; (80003f4 <fnReset_IRQ+0x244>)
 8000378:	6013      	str	r3, [r2, #0]
 800037a:	e005      	b.n	8000388 <fnReset_IRQ+0x1d8>
 800037c:	4b1d      	ldr	r3, [pc, #116]	; (80003f4 <fnReset_IRQ+0x244>)
 800037e:	681b      	ldr	r3, [r3, #0]
 8000380:	f023 0301 	bic.w	r3, r3, #1
 8000384:	4a1b      	ldr	r2, [pc, #108]	; (80003f4 <fnReset_IRQ+0x244>)
 8000386:	6013      	str	r3, [r2, #0]
 8000388:	4b1b      	ldr	r3, [pc, #108]	; (80003f8 <fnReset_IRQ+0x248>)
 800038a:	2269      	movs	r2, #105	; 0x69
 800038c:	601a      	str	r2, [r3, #0]
 800038e:	4b17      	ldr	r3, [pc, #92]	; (80003ec <fnReset_IRQ+0x23c>)
 8000390:	4a17      	ldr	r2, [pc, #92]	; (80003f0 <fnReset_IRQ+0x240>)
 8000392:	601a      	str	r2, [r3, #0]
 8000394:	e043      	b.n	800041e <fnReset_IRQ+0x26e>
 8000396:	bf00      	nop
 8000398:	20000000 	.word	0x20000000
 800039c:	20000080 	.word	0x20000080
 80003a0:	08001558 	.word	0x08001558
 80003a4:	20000000 	.word	0x20000000
 80003a8:	20000000 	.word	0x20000000
 80003ac:	2000000c 	.word	0x2000000c
 80003b0:	40022000 	.word	0x40022000
 80003b4:	40021018 	.word	0x40021018
 80003b8:	40021020 	.word	0x40021020
 80003bc:	40021038 	.word	0x40021038
 80003c0:	4002103c 	.word	0x4002103c
 80003c4:	40021040 	.word	0x40021040
 80003c8:	40021028 	.word	0x40021028
 80003cc:	4002102c 	.word	0x4002102c
 80003d0:	40021030 	.word	0x40021030
 80003d4:	40021058 	.word	0x40021058
 80003d8:	10000400 	.word	0x10000400
 80003dc:	40021078 	.word	0x40021078
 80003e0:	40007000 	.word	0x40007000
 80003e4:	40021090 	.word	0x40021090
 80003e8:	0300811d 	.word	0x0300811d
 80003ec:	20000000 	.word	0x20000000
 80003f0:	000186a0 	.word	0x000186a0
 80003f4:	20000004 	.word	0x20000004
 80003f8:	40021000 	.word	0x40021000
 80003fc:	4b80      	ldr	r3, [pc, #512]	; (8000600 <fnReset_IRQ+0x450>)
 80003fe:	681b      	ldr	r3, [r3, #0]
 8000400:	3b01      	subs	r3, #1
 8000402:	4a7f      	ldr	r2, [pc, #508]	; (8000600 <fnReset_IRQ+0x450>)
 8000404:	6013      	str	r3, [r2, #0]
 8000406:	bf00      	nop
 8000408:	bf00      	nop
 800040a:	bf00      	nop
 800040c:	bf00      	nop
 800040e:	bf00      	nop
 8000410:	bf00      	nop
 8000412:	bf00      	nop
 8000414:	bf00      	nop
 8000416:	bf00      	nop
 8000418:	bf00      	nop
 800041a:	bf00      	nop
 800041c:	bf00      	nop
 800041e:	4b79      	ldr	r3, [pc, #484]	; (8000604 <fnReset_IRQ+0x454>)
 8000420:	681b      	ldr	r3, [r3, #0]
 8000422:	f003 0302 	and.w	r3, r3, #2
 8000426:	2b02      	cmp	r3, #2
 8000428:	d003      	beq.n	8000432 <fnReset_IRQ+0x282>
 800042a:	4b75      	ldr	r3, [pc, #468]	; (8000600 <fnReset_IRQ+0x450>)
 800042c:	681b      	ldr	r3, [r3, #0]
 800042e:	2b00      	cmp	r3, #0
 8000430:	d1e4      	bne.n	80003fc <fnReset_IRQ+0x24c>
 8000432:	4b73      	ldr	r3, [pc, #460]	; (8000600 <fnReset_IRQ+0x450>)
 8000434:	681b      	ldr	r3, [r3, #0]
 8000436:	2b00      	cmp	r3, #0
 8000438:	d006      	beq.n	8000448 <fnReset_IRQ+0x298>
 800043a:	4b73      	ldr	r3, [pc, #460]	; (8000608 <fnReset_IRQ+0x458>)
 800043c:	681b      	ldr	r3, [r3, #0]
 800043e:	f043 0302 	orr.w	r3, r3, #2
 8000442:	4a71      	ldr	r2, [pc, #452]	; (8000608 <fnReset_IRQ+0x458>)
 8000444:	6013      	str	r3, [r2, #0]
 8000446:	e005      	b.n	8000454 <fnReset_IRQ+0x2a4>
 8000448:	4b6f      	ldr	r3, [pc, #444]	; (8000608 <fnReset_IRQ+0x458>)
 800044a:	681b      	ldr	r3, [r3, #0]
 800044c:	f023 0302 	bic.w	r3, r3, #2
 8000450:	4a6d      	ldr	r2, [pc, #436]	; (8000608 <fnReset_IRQ+0x458>)
 8000452:	6013      	str	r3, [r2, #0]
 8000454:	4b6b      	ldr	r3, [pc, #428]	; (8000604 <fnReset_IRQ+0x454>)
 8000456:	681b      	ldr	r3, [r3, #0]
 8000458:	4a6a      	ldr	r2, [pc, #424]	; (8000604 <fnReset_IRQ+0x454>)
 800045a:	f043 036d 	orr.w	r3, r3, #109	; 0x6d
 800045e:	6013      	str	r3, [r2, #0]
 8000460:	bf00      	nop
 8000462:	bf00      	nop
 8000464:	bf00      	nop
 8000466:	bf00      	nop
 8000468:	bf00      	nop
 800046a:	bf00      	nop
 800046c:	bf00      	nop
 800046e:	bf00      	nop
 8000470:	bf00      	nop
 8000472:	bf00      	nop
 8000474:	bf00      	nop
 8000476:	bf00      	nop
 8000478:	bf00      	nop
 800047a:	bf00      	nop
 800047c:	bf00      	nop
 800047e:	bf00      	nop
 8000480:	bf00      	nop
 8000482:	bf00      	nop
 8000484:	bf00      	nop
 8000486:	bf00      	nop
 8000488:	bf00      	nop
 800048a:	bf00      	nop
 800048c:	bf00      	nop
 800048e:	bf00      	nop
 8000490:	bf00      	nop
 8000492:	bf00      	nop
 8000494:	bf00      	nop
 8000496:	bf00      	nop
 8000498:	bf00      	nop
 800049a:	bf00      	nop
 800049c:	bf00      	nop
 800049e:	bf00      	nop
 80004a0:	bf00      	nop
 80004a2:	bf00      	nop
 80004a4:	bf00      	nop
 80004a6:	bf00      	nop
 80004a8:	bf00      	nop
 80004aa:	bf00      	nop
 80004ac:	bf00      	nop
 80004ae:	bf00      	nop
 80004b0:	bf00      	nop
 80004b2:	bf00      	nop
 80004b4:	bf00      	nop
 80004b6:	bf00      	nop
 80004b8:	bf00      	nop
 80004ba:	bf00      	nop
 80004bc:	bf00      	nop
 80004be:	bf00      	nop
 80004c0:	4b4f      	ldr	r3, [pc, #316]	; (8000600 <fnReset_IRQ+0x450>)
 80004c2:	4a52      	ldr	r2, [pc, #328]	; (800060c <fnReset_IRQ+0x45c>)
 80004c4:	601a      	str	r2, [r3, #0]
 80004c6:	e010      	b.n	80004ea <fnReset_IRQ+0x33a>
 80004c8:	4b4d      	ldr	r3, [pc, #308]	; (8000600 <fnReset_IRQ+0x450>)
 80004ca:	681b      	ldr	r3, [r3, #0]
 80004cc:	3b01      	subs	r3, #1
 80004ce:	4a4c      	ldr	r2, [pc, #304]	; (8000600 <fnReset_IRQ+0x450>)
 80004d0:	6013      	str	r3, [r2, #0]
 80004d2:	bf00      	nop
 80004d4:	bf00      	nop
 80004d6:	bf00      	nop
 80004d8:	bf00      	nop
 80004da:	bf00      	nop
 80004dc:	bf00      	nop
 80004de:	bf00      	nop
 80004e0:	bf00      	nop
 80004e2:	bf00      	nop
 80004e4:	bf00      	nop
 80004e6:	bf00      	nop
 80004e8:	bf00      	nop
 80004ea:	4b46      	ldr	r3, [pc, #280]	; (8000604 <fnReset_IRQ+0x454>)
 80004ec:	681b      	ldr	r3, [r3, #0]
 80004ee:	f003 0302 	and.w	r3, r3, #2
 80004f2:	2b02      	cmp	r3, #2
 80004f4:	d003      	beq.n	80004fe <fnReset_IRQ+0x34e>
 80004f6:	4b42      	ldr	r3, [pc, #264]	; (8000600 <fnReset_IRQ+0x450>)
 80004f8:	681b      	ldr	r3, [r3, #0]
 80004fa:	2b00      	cmp	r3, #0
 80004fc:	d1e4      	bne.n	80004c8 <fnReset_IRQ+0x318>
 80004fe:	4b40      	ldr	r3, [pc, #256]	; (8000600 <fnReset_IRQ+0x450>)
 8000500:	681b      	ldr	r3, [r3, #0]
 8000502:	2b00      	cmp	r3, #0
 8000504:	d006      	beq.n	8000514 <fnReset_IRQ+0x364>
 8000506:	4b40      	ldr	r3, [pc, #256]	; (8000608 <fnReset_IRQ+0x458>)
 8000508:	681b      	ldr	r3, [r3, #0]
 800050a:	f043 0304 	orr.w	r3, r3, #4
 800050e:	4a3e      	ldr	r2, [pc, #248]	; (8000608 <fnReset_IRQ+0x458>)
 8000510:	6013      	str	r3, [r2, #0]
 8000512:	e005      	b.n	8000520 <fnReset_IRQ+0x370>
 8000514:	4b3c      	ldr	r3, [pc, #240]	; (8000608 <fnReset_IRQ+0x458>)
 8000516:	681b      	ldr	r3, [r3, #0]
 8000518:	f023 0304 	bic.w	r3, r3, #4
 800051c:	4a3a      	ldr	r2, [pc, #232]	; (8000608 <fnReset_IRQ+0x458>)
 800051e:	6013      	str	r3, [r2, #0]
 8000520:	4b3b      	ldr	r3, [pc, #236]	; (8000610 <fnReset_IRQ+0x460>)
 8000522:	4a3c      	ldr	r2, [pc, #240]	; (8000614 <fnReset_IRQ+0x464>)
 8000524:	601a      	str	r2, [r3, #0]
 8000526:	bf00      	nop
 8000528:	bf00      	nop
 800052a:	bf00      	nop
 800052c:	bf00      	nop
 800052e:	bf00      	nop
 8000530:	bf00      	nop
 8000532:	bf00      	nop
 8000534:	bf00      	nop
 8000536:	bf00      	nop
 8000538:	bf00      	nop
 800053a:	bf00      	nop
 800053c:	bf00      	nop
 800053e:	bf00      	nop
 8000540:	bf00      	nop
 8000542:	bf00      	nop
 8000544:	bf00      	nop
 8000546:	bf00      	nop
 8000548:	bf00      	nop
 800054a:	bf00      	nop
 800054c:	bf00      	nop
 800054e:	bf00      	nop
 8000550:	bf00      	nop
 8000552:	bf00      	nop
 8000554:	bf00      	nop
 8000556:	bf00      	nop
 8000558:	bf00      	nop
 800055a:	bf00      	nop
 800055c:	bf00      	nop
 800055e:	bf00      	nop
 8000560:	bf00      	nop
 8000562:	bf00      	nop
 8000564:	bf00      	nop
 8000566:	bf00      	nop
 8000568:	bf00      	nop
 800056a:	bf00      	nop
 800056c:	bf00      	nop
 800056e:	bf00      	nop
 8000570:	bf00      	nop
 8000572:	bf00      	nop
 8000574:	bf00      	nop
 8000576:	bf00      	nop
 8000578:	bf00      	nop
 800057a:	bf00      	nop
 800057c:	bf00      	nop
 800057e:	bf00      	nop
 8000580:	bf00      	nop
 8000582:	bf00      	nop
 8000584:	bf00      	nop
 8000586:	4b1f      	ldr	r3, [pc, #124]	; (8000604 <fnReset_IRQ+0x454>)
 8000588:	681b      	ldr	r3, [r3, #0]
 800058a:	4a1e      	ldr	r2, [pc, #120]	; (8000604 <fnReset_IRQ+0x454>)
 800058c:	f043 7380 	orr.w	r3, r3, #16777216	; 0x1000000
 8000590:	f043 036d 	orr.w	r3, r3, #109	; 0x6d
 8000594:	6013      	str	r3, [r2, #0]
 8000596:	bf00      	nop
 8000598:	bf00      	nop
 800059a:	bf00      	nop
 800059c:	bf00      	nop
 800059e:	bf00      	nop
 80005a0:	bf00      	nop
 80005a2:	bf00      	nop
 80005a4:	bf00      	nop
 80005a6:	bf00      	nop
 80005a8:	bf00      	nop
 80005aa:	bf00      	nop
 80005ac:	bf00      	nop
 80005ae:	bf00      	nop
 80005b0:	bf00      	nop
 80005b2:	bf00      	nop
 80005b4:	bf00      	nop
 80005b6:	bf00      	nop
 80005b8:	bf00      	nop
 80005ba:	bf00      	nop
 80005bc:	bf00      	nop
 80005be:	bf00      	nop
 80005c0:	bf00      	nop
 80005c2:	bf00      	nop
 80005c4:	bf00      	nop
 80005c6:	bf00      	nop
 80005c8:	bf00      	nop
 80005ca:	bf00      	nop
 80005cc:	bf00      	nop
 80005ce:	bf00      	nop
 80005d0:	bf00      	nop
 80005d2:	bf00      	nop
 80005d4:	bf00      	nop
 80005d6:	bf00      	nop
 80005d8:	bf00      	nop
 80005da:	bf00      	nop
 80005dc:	bf00      	nop
 80005de:	bf00      	nop
 80005e0:	bf00      	nop
 80005e2:	bf00      	nop
 80005e4:	bf00      	nop
 80005e6:	bf00      	nop
 80005e8:	bf00      	nop
 80005ea:	bf00      	nop
 80005ec:	bf00      	nop
 80005ee:	bf00      	nop
 80005f0:	bf00      	nop
 80005f2:	bf00      	nop
 80005f4:	bf00      	nop
 80005f6:	4b02      	ldr	r3, [pc, #8]	; (8000600 <fnReset_IRQ+0x450>)
 80005f8:	4a04      	ldr	r2, [pc, #16]	; (800060c <fnReset_IRQ+0x45c>)
 80005fa:	601a      	str	r2, [r3, #0]
 80005fc:	e01d      	b.n	800063a <fnReset_IRQ+0x48a>
 80005fe:	bf00      	nop
 8000600:	20000000 	.word	0x20000000
 8000604:	40021000 	.word	0x40021000
 8000608:	20000004 	.word	0x20000004
 800060c:	000186a0 	.word	0x000186a0
 8000610:	4002100c 	.word	0x4002100c
 8000614:	03504801 	.word	0x03504801
 8000618:	4b2c      	ldr	r3, [pc, #176]	; (80006cc <fnReset_IRQ+0x51c>)
 800061a:	681b      	ldr	r3, [r3, #0]
 800061c:	3b01      	subs	r3, #1
 800061e:	4a2b      	ldr	r2, [pc, #172]	; (80006cc <fnReset_IRQ+0x51c>)
 8000620:	6013      	str	r3, [r2, #0]
 8000622:	bf00      	nop
 8000624:	bf00      	nop
 8000626:	bf00      	nop
 8000628:	bf00      	nop
 800062a:	bf00      	nop
 800062c:	bf00      	nop
 800062e:	bf00      	nop
 8000630:	bf00      	nop
 8000632:	bf00      	nop
 8000634:	bf00      	nop
 8000636:	bf00      	nop
 8000638:	bf00      	nop
 800063a:	4b25      	ldr	r3, [pc, #148]	; (80006d0 <fnReset_IRQ+0x520>)
 800063c:	681a      	ldr	r2, [r3, #0]
 800063e:	4b25      	ldr	r3, [pc, #148]	; (80006d4 <fnReset_IRQ+0x524>)
 8000640:	4013      	ands	r3, r2
 8000642:	4a24      	ldr	r2, [pc, #144]	; (80006d4 <fnReset_IRQ+0x524>)
 8000644:	4293      	cmp	r3, r2
 8000646:	d003      	beq.n	8000650 <fnReset_IRQ+0x4a0>
 8000648:	4b20      	ldr	r3, [pc, #128]	; (80006cc <fnReset_IRQ+0x51c>)
 800064a:	681b      	ldr	r3, [r3, #0]
 800064c:	2b00      	cmp	r3, #0
 800064e:	d1e3      	bne.n	8000618 <fnReset_IRQ+0x468>
 8000650:	4b1e      	ldr	r3, [pc, #120]	; (80006cc <fnReset_IRQ+0x51c>)
 8000652:	681b      	ldr	r3, [r3, #0]
 8000654:	2b00      	cmp	r3, #0
 8000656:	d006      	beq.n	8000666 <fnReset_IRQ+0x4b6>
 8000658:	4b1f      	ldr	r3, [pc, #124]	; (80006d8 <fnReset_IRQ+0x528>)
 800065a:	681b      	ldr	r3, [r3, #0]
 800065c:	f043 0308 	orr.w	r3, r3, #8
 8000660:	4a1d      	ldr	r2, [pc, #116]	; (80006d8 <fnReset_IRQ+0x528>)
 8000662:	6013      	str	r3, [r2, #0]
 8000664:	e005      	b.n	8000672 <fnReset_IRQ+0x4c2>
 8000666:	4b1c      	ldr	r3, [pc, #112]	; (80006d8 <fnReset_IRQ+0x528>)
 8000668:	681b      	ldr	r3, [r3, #0]
 800066a:	f023 0308 	bic.w	r3, r3, #8
 800066e:	4a1a      	ldr	r2, [pc, #104]	; (80006d8 <fnReset_IRQ+0x528>)
 8000670:	6013      	str	r3, [r2, #0]
 8000672:	4b1a      	ldr	r3, [pc, #104]	; (80006dc <fnReset_IRQ+0x52c>)
 8000674:	2203      	movs	r2, #3
 8000676:	601a      	str	r2, [r3, #0]
 8000678:	4b14      	ldr	r3, [pc, #80]	; (80006cc <fnReset_IRQ+0x51c>)
 800067a:	4a19      	ldr	r2, [pc, #100]	; (80006e0 <fnReset_IRQ+0x530>)
 800067c:	601a      	str	r2, [r3, #0]
 800067e:	e010      	b.n	80006a2 <fnReset_IRQ+0x4f2>
 8000680:	4b12      	ldr	r3, [pc, #72]	; (80006cc <fnReset_IRQ+0x51c>)
 8000682:	681b      	ldr	r3, [r3, #0]
 8000684:	3b01      	subs	r3, #1
 8000686:	4a11      	ldr	r2, [pc, #68]	; (80006cc <fnReset_IRQ+0x51c>)
 8000688:	6013      	str	r3, [r2, #0]
 800068a:	bf00      	nop
 800068c:	bf00      	nop
 800068e:	bf00      	nop
 8000690:	bf00      	nop
 8000692:	bf00      	nop
 8000694:	bf00      	nop
 8000696:	bf00      	nop
 8000698:	bf00      	nop
 800069a:	bf00      	nop
 800069c:	bf00      	nop
 800069e:	bf00      	nop
 80006a0:	bf00      	nop
 80006a2:	4b0e      	ldr	r3, [pc, #56]	; (80006dc <fnReset_IRQ+0x52c>)
 80006a4:	681b      	ldr	r3, [r3, #0]
 80006a6:	f003 030c 	and.w	r3, r3, #12
 80006aa:	2b0c      	cmp	r3, #12
 80006ac:	d003      	beq.n	80006b6 <fnReset_IRQ+0x506>
 80006ae:	4b07      	ldr	r3, [pc, #28]	; (80006cc <fnReset_IRQ+0x51c>)
 80006b0:	681b      	ldr	r3, [r3, #0]
 80006b2:	2b00      	cmp	r3, #0
 80006b4:	d1e4      	bne.n	8000680 <fnReset_IRQ+0x4d0>
 80006b6:	4b05      	ldr	r3, [pc, #20]	; (80006cc <fnReset_IRQ+0x51c>)
 80006b8:	681b      	ldr	r3, [r3, #0]
 80006ba:	2b00      	cmp	r3, #0
 80006bc:	d012      	beq.n	80006e4 <fnReset_IRQ+0x534>
 80006be:	4b06      	ldr	r3, [pc, #24]	; (80006d8 <fnReset_IRQ+0x528>)
 80006c0:	681b      	ldr	r3, [r3, #0]
 80006c2:	f043 0310 	orr.w	r3, r3, #16
 80006c6:	4a04      	ldr	r2, [pc, #16]	; (80006d8 <fnReset_IRQ+0x528>)
 80006c8:	6013      	str	r3, [r2, #0]
 80006ca:	e011      	b.n	80006f0 <fnReset_IRQ+0x540>
 80006cc:	20000000 	.word	0x20000000
 80006d0:	40021000 	.word	0x40021000
 80006d4:	02000002 	.word	0x02000002
 80006d8:	20000004 	.word	0x20000004
 80006dc:	40021008 	.word	0x40021008
 80006e0:	000186a0 	.word	0x000186a0
 80006e4:	4b88      	ldr	r3, [pc, #544]	; (8000908 <fnReset_IRQ+0x758>)
 80006e6:	681b      	ldr	r3, [r3, #0]
 80006e8:	f023 0310 	bic.w	r3, r3, #16
 80006ec:	4a86      	ldr	r2, [pc, #536]	; (8000908 <fnReset_IRQ+0x758>)
 80006ee:	6013      	str	r3, [r2, #0]
 80006f0:	4b86      	ldr	r3, [pc, #536]	; (800090c <fnReset_IRQ+0x75c>)
 80006f2:	2200      	movs	r2, #0
 80006f4:	601a      	str	r2, [r3, #0]
 80006f6:	4b86      	ldr	r3, [pc, #536]	; (8000910 <fnReset_IRQ+0x760>)
 80006f8:	f44f 7280 	mov.w	r2, #256	; 0x100
 80006fc:	601a      	str	r2, [r3, #0]
 80006fe:	4b85      	ldr	r3, [pc, #532]	; (8000914 <fnReset_IRQ+0x764>)
 8000700:	f44f 7240 	mov.w	r2, #768	; 0x300
 8000704:	601a      	str	r2, [r3, #0]
 8000706:	4b84      	ldr	r3, [pc, #528]	; (8000918 <fnReset_IRQ+0x768>)
 8000708:	4a84      	ldr	r2, [pc, #528]	; (800091c <fnReset_IRQ+0x76c>)
 800070a:	601a      	str	r2, [r3, #0]
 800070c:	4b84      	ldr	r3, [pc, #528]	; (8000920 <fnReset_IRQ+0x770>)
 800070e:	4a83      	ldr	r2, [pc, #524]	; (800091c <fnReset_IRQ+0x76c>)
 8000710:	601a      	str	r2, [r3, #0]
 8000712:	4b84      	ldr	r3, [pc, #528]	; (8000924 <fnReset_IRQ+0x774>)
 8000714:	2200      	movs	r2, #0
 8000716:	601a      	str	r2, [r3, #0]
 8000718:	4b83      	ldr	r3, [pc, #524]	; (8000928 <fnReset_IRQ+0x778>)
 800071a:	2200      	movs	r2, #0
 800071c:	601a      	str	r2, [r3, #0]
 800071e:	4b83      	ldr	r3, [pc, #524]	; (800092c <fnReset_IRQ+0x77c>)
 8000720:	4a83      	ldr	r2, [pc, #524]	; (8000930 <fnReset_IRQ+0x780>)
 8000722:	601a      	str	r2, [r3, #0]
 8000724:	4b83      	ldr	r3, [pc, #524]	; (8000934 <fnReset_IRQ+0x784>)
 8000726:	4a82      	ldr	r2, [pc, #520]	; (8000930 <fnReset_IRQ+0x780>)
 8000728:	601a      	str	r2, [r3, #0]
 800072a:	4b83      	ldr	r3, [pc, #524]	; (8000938 <fnReset_IRQ+0x788>)
 800072c:	2200      	movs	r2, #0
 800072e:	601a      	str	r2, [r3, #0]
 8000730:	4b82      	ldr	r3, [pc, #520]	; (800093c <fnReset_IRQ+0x78c>)
 8000732:	2200      	movs	r2, #0
 8000734:	601a      	str	r2, [r3, #0]
 8000736:	4b82      	ldr	r3, [pc, #520]	; (8000940 <fnReset_IRQ+0x790>)
 8000738:	2201      	movs	r2, #1
 800073a:	601a      	str	r2, [r3, #0]
 800073c:	4b81      	ldr	r3, [pc, #516]	; (8000944 <fnReset_IRQ+0x794>)
 800073e:	2201      	movs	r2, #1
 8000740:	601a      	str	r2, [r3, #0]
 8000742:	bf00      	nop
 8000744:	bf00      	nop
 8000746:	bf00      	nop
 8000748:	bf00      	nop
 800074a:	bf00      	nop
 800074c:	bf00      	nop
 800074e:	bf00      	nop
 8000750:	bf00      	nop
 8000752:	bf00      	nop
 8000754:	bf00      	nop
 8000756:	bf00      	nop
 8000758:	bf00      	nop
 800075a:	bf00      	nop
 800075c:	bf00      	nop
 800075e:	bf00      	nop
 8000760:	bf00      	nop
 8000762:	bf00      	nop
 8000764:	bf00      	nop
 8000766:	bf00      	nop
 8000768:	bf00      	nop
 800076a:	bf00      	nop
 800076c:	bf00      	nop
 800076e:	bf00      	nop
 8000770:	bf00      	nop
 8000772:	bf00      	nop
 8000774:	bf00      	nop
 8000776:	bf00      	nop
 8000778:	bf00      	nop
 800077a:	bf00      	nop
 800077c:	bf00      	nop
 800077e:	bf00      	nop
 8000780:	bf00      	nop
 8000782:	bf00      	nop
 8000784:	bf00      	nop
 8000786:	bf00      	nop
 8000788:	bf00      	nop
 800078a:	bf00      	nop
 800078c:	bf00      	nop
 800078e:	bf00      	nop
 8000790:	bf00      	nop
 8000792:	bf00      	nop
 8000794:	bf00      	nop
 8000796:	bf00      	nop
 8000798:	bf00      	nop
 800079a:	bf00      	nop
 800079c:	bf00      	nop
 800079e:	bf00      	nop
 80007a0:	bf00      	nop
 80007a2:	bf00      	nop
 80007a4:	bf00      	nop
 80007a6:	bf00      	nop
 80007a8:	bf00      	nop
 80007aa:	bf00      	nop
 80007ac:	bf00      	nop
 80007ae:	bf00      	nop
 80007b0:	bf00      	nop
 80007b2:	bf00      	nop
 80007b4:	bf00      	nop
 80007b6:	bf00      	nop
 80007b8:	bf00      	nop
 80007ba:	bf00      	nop
 80007bc:	bf00      	nop
 80007be:	bf00      	nop
 80007c0:	bf00      	nop
 80007c2:	bf00      	nop
 80007c4:	bf00      	nop
 80007c6:	bf00      	nop
 80007c8:	bf00      	nop
 80007ca:	bf00      	nop
 80007cc:	bf00      	nop
 80007ce:	bf00      	nop
 80007d0:	bf00      	nop
 80007d2:	bf00      	nop
 80007d4:	bf00      	nop
 80007d6:	bf00      	nop
 80007d8:	bf00      	nop
 80007da:	bf00      	nop
 80007dc:	bf00      	nop
 80007de:	bf00      	nop
 80007e0:	bf00      	nop
 80007e2:	bf00      	nop
 80007e4:	bf00      	nop
 80007e6:	bf00      	nop
 80007e8:	bf00      	nop
 80007ea:	bf00      	nop
 80007ec:	bf00      	nop
 80007ee:	bf00      	nop
 80007f0:	bf00      	nop
 80007f2:	bf00      	nop
 80007f4:	bf00      	nop
 80007f6:	bf00      	nop
 80007f8:	bf00      	nop
 80007fa:	bf00      	nop
 80007fc:	bf00      	nop
 80007fe:	bf00      	nop
 8000800:	bf00      	nop
 8000802:	bf00      	nop
 8000804:	bf00      	nop
 8000806:	bf00      	nop
 8000808:	bf00      	nop
 800080a:	f04f 4390 	mov.w	r3, #1207959552	; 0x48000000
 800080e:	f04f 3255 	mov.w	r2, #1431655765	; 0x55555555
 8000812:	601a      	str	r2, [r3, #0]
 8000814:	4b4c      	ldr	r3, [pc, #304]	; (8000948 <fnReset_IRQ+0x798>)
 8000816:	2200      	movs	r2, #0
 8000818:	601a      	str	r2, [r3, #0]
 800081a:	4b4c      	ldr	r3, [pc, #304]	; (800094c <fnReset_IRQ+0x79c>)
 800081c:	f04f 32ff 	mov.w	r2, #4294967295	; 0xffffffff
 8000820:	601a      	str	r2, [r3, #0]
 8000822:	4b4b      	ldr	r3, [pc, #300]	; (8000950 <fnReset_IRQ+0x7a0>)
 8000824:	2200      	movs	r2, #0
 8000826:	601a      	str	r2, [r3, #0]
 8000828:	4b4a      	ldr	r3, [pc, #296]	; (8000954 <fnReset_IRQ+0x7a4>)
 800082a:	2200      	movs	r2, #0
 800082c:	601a      	str	r2, [r3, #0]
 800082e:	4b4a      	ldr	r3, [pc, #296]	; (8000958 <fnReset_IRQ+0x7a8>)
 8000830:	2200      	movs	r2, #0
 8000832:	601a      	str	r2, [r3, #0]
 8000834:	4b49      	ldr	r3, [pc, #292]	; (800095c <fnReset_IRQ+0x7ac>)
 8000836:	2200      	movs	r2, #0
 8000838:	601a      	str	r2, [r3, #0]
 800083a:	4b49      	ldr	r3, [pc, #292]	; (8000960 <fnReset_IRQ+0x7b0>)
 800083c:	2200      	movs	r2, #0
 800083e:	601a      	str	r2, [r3, #0]
 8000840:	4b48      	ldr	r3, [pc, #288]	; (8000964 <fnReset_IRQ+0x7b4>)
 8000842:	2200      	movs	r2, #0
 8000844:	601a      	str	r2, [r3, #0]
 8000846:	4b48      	ldr	r3, [pc, #288]	; (8000968 <fnReset_IRQ+0x7b8>)
 8000848:	2205      	movs	r2, #5
 800084a:	601a      	str	r2, [r3, #0]
 800084c:	4b47      	ldr	r3, [pc, #284]	; (800096c <fnReset_IRQ+0x7bc>)
 800084e:	2200      	movs	r2, #0
 8000850:	601a      	str	r2, [r3, #0]
 8000852:	4b47      	ldr	r3, [pc, #284]	; (8000970 <fnReset_IRQ+0x7c0>)
 8000854:	f04f 32ff 	mov.w	r2, #4294967295	; 0xffffffff
 8000858:	601a      	str	r2, [r3, #0]
 800085a:	4b46      	ldr	r3, [pc, #280]	; (8000974 <fnReset_IRQ+0x7c4>)
 800085c:	2200      	movs	r2, #0
 800085e:	601a      	str	r2, [r3, #0]
 8000860:	4b45      	ldr	r3, [pc, #276]	; (8000978 <fnReset_IRQ+0x7c8>)
 8000862:	2200      	movs	r2, #0
 8000864:	601a      	str	r2, [r3, #0]
 8000866:	4b45      	ldr	r3, [pc, #276]	; (800097c <fnReset_IRQ+0x7cc>)
 8000868:	2200      	movs	r2, #0
 800086a:	601a      	str	r2, [r3, #0]
 800086c:	4b44      	ldr	r3, [pc, #272]	; (8000980 <fnReset_IRQ+0x7d0>)
 800086e:	2200      	movs	r2, #0
 8000870:	601a      	str	r2, [r3, #0]
 8000872:	4b44      	ldr	r3, [pc, #272]	; (8000984 <fnReset_IRQ+0x7d4>)
 8000874:	2200      	movs	r2, #0
 8000876:	601a      	str	r2, [r3, #0]
 8000878:	4b43      	ldr	r3, [pc, #268]	; (8000988 <fnReset_IRQ+0x7d8>)
 800087a:	2200      	movs	r2, #0
 800087c:	601a      	str	r2, [r3, #0]
 800087e:	bf00      	nop
 8000880:	bf00      	nop
 8000882:	bf00      	nop
 8000884:	bf00      	nop
 8000886:	bf00      	nop
 8000888:	bf00      	nop
 800088a:	bf00      	nop
 800088c:	bf00      	nop
 800088e:	bf00      	nop
 8000890:	bf00      	nop
 8000892:	bf00      	nop
 8000894:	bf00      	nop
 8000896:	bf00      	nop
 8000898:	bf00      	nop
 800089a:	bf00      	nop
 800089c:	bf00      	nop
 800089e:	bf00      	nop
 80008a0:	bf00      	nop
 80008a2:	bf00      	nop
 80008a4:	bf00      	nop
 80008a6:	bf00      	nop
 80008a8:	bf00      	nop
 80008aa:	bf00      	nop
 80008ac:	bf00      	nop
 80008ae:	bf00      	nop
 80008b0:	bf00      	nop
 80008b2:	bf00      	nop
 80008b4:	bf00      	nop
 80008b6:	bf00      	nop
 80008b8:	bf00      	nop
 80008ba:	bf00      	nop
 80008bc:	bf00      	nop
 80008be:	bf00      	nop
 80008c0:	bf00      	nop
 80008c2:	bf00      	nop
 80008c4:	bf00      	nop
 80008c6:	bf00      	nop
 80008c8:	bf00      	nop
 80008ca:	bf00      	nop
 80008cc:	bf00      	nop
 80008ce:	bf00      	nop
 80008d0:	bf00      	nop
 80008d2:	bf00      	nop
 80008d4:	bf00      	nop
 80008d6:	bf00      	nop
 80008d8:	bf00      	nop
 80008da:	bf00      	nop
 80008dc:	bf00      	nop
 80008de:	4b2b      	ldr	r3, [pc, #172]	; (800098c <fnReset_IRQ+0x7dc>)
 80008e0:	f04f 4280 	mov.w	r2, #1073741824	; 0x40000000
 80008e4:	601a      	str	r2, [r3, #0]
 80008e6:	4b2a      	ldr	r3, [pc, #168]	; (8000990 <fnReset_IRQ+0x7e0>)
 80008e8:	2200      	movs	r2, #0
 80008ea:	601a      	str	r2, [r3, #0]
 80008ec:	4b29      	ldr	r3, [pc, #164]	; (8000994 <fnReset_IRQ+0x7e4>)
 80008ee:	f04f 32ff 	mov.w	r2, #4294967295	; 0xffffffff
 80008f2:	601a      	str	r2, [r3, #0]
 80008f4:	4b28      	ldr	r3, [pc, #160]	; (8000998 <fnReset_IRQ+0x7e8>)
 80008f6:	2200      	movs	r2, #0
 80008f8:	601a      	str	r2, [r3, #0]
 80008fa:	4b28      	ldr	r3, [pc, #160]	; (800099c <fnReset_IRQ+0x7ec>)
 80008fc:	2200      	movs	r2, #0
 80008fe:	601a      	str	r2, [r3, #0]
 8000900:	4b27      	ldr	r3, [pc, #156]	; (80009a0 <fnReset_IRQ+0x7f0>)
 8000902:	2200      	movs	r2, #0
 8000904:	601a      	str	r2, [r3, #0]
 8000906:	e04d      	b.n	80009a4 <fnReset_IRQ+0x7f4>
 8000908:	20000004 	.word	0x20000004
 800090c:	40021088 	.word	0x40021088
 8000910:	40021048 	.word	0x40021048
 8000914:	40021068 	.word	0x40021068
 8000918:	4002104c 	.word	0x4002104c
 800091c:	00040007 	.word	0x00040007
 8000920:	4002106c 	.word	0x4002106c
 8000924:	40021050 	.word	0x40021050
 8000928:	40021070 	.word	0x40021070
 800092c:	40021058 	.word	0x40021058
 8000930:	10200800 	.word	0x10200800
 8000934:	40021078 	.word	0x40021078
 8000938:	4002105c 	.word	0x4002105c
 800093c:	4002107c 	.word	0x4002107c
 8000940:	40021060 	.word	0x40021060
 8000944:	40021080 	.word	0x40021080
 8000948:	48000004 	.word	0x48000004
 800094c:	48000008 	.word	0x48000008
 8000950:	4800000c 	.word	0x4800000c
 8000954:	48000014 	.word	0x48000014
 8000958:	48000018 	.word	0x48000018
 800095c:	4800001c 	.word	0x4800001c
 8000960:	48000020 	.word	0x48000020
 8000964:	48000024 	.word	0x48000024
 8000968:	48000400 	.word	0x48000400
 800096c:	48000404 	.word	0x48000404
 8000970:	48000408 	.word	0x48000408
 8000974:	4800040c 	.word	0x4800040c
 8000978:	48000414 	.word	0x48000414
 800097c:	48000418 	.word	0x48000418
 8000980:	4800041c 	.word	0x4800041c
 8000984:	48000420 	.word	0x48000420
 8000988:	48000424 	.word	0x48000424
 800098c:	48000800 	.word	0x48000800
 8000990:	48000804 	.word	0x48000804
 8000994:	48000808 	.word	0x48000808
 8000998:	4800080c 	.word	0x4800080c
 800099c:	48000814 	.word	0x48000814
 80009a0:	48000818 	.word	0x48000818
 80009a4:	4b4f      	ldr	r3, [pc, #316]	; (8000ae4 <fnReset_IRQ+0x934>)
 80009a6:	2200      	movs	r2, #0
 80009a8:	601a      	str	r2, [r3, #0]
 80009aa:	4b4f      	ldr	r3, [pc, #316]	; (8000ae8 <fnReset_IRQ+0x938>)
 80009ac:	2200      	movs	r2, #0
 80009ae:	601a      	str	r2, [r3, #0]
 80009b0:	4b4e      	ldr	r3, [pc, #312]	; (8000aec <fnReset_IRQ+0x93c>)
 80009b2:	2200      	movs	r2, #0
 80009b4:	601a      	str	r2, [r3, #0]
 80009b6:	bf00      	nop
 80009b8:	bf00      	nop
 80009ba:	bf00      	nop
 80009bc:	bf00      	nop
 80009be:	bf00      	nop
 80009c0:	bf00      	nop
 80009c2:	bf00      	nop
 80009c4:	bf00      	nop
 80009c6:	bf00      	nop
 80009c8:	bf00      	nop
 80009ca:	bf00      	nop
 80009cc:	bf00      	nop
 80009ce:	bf00      	nop
 80009d0:	bf00      	nop
 80009d2:	bf00      	nop
 80009d4:	bf00      	nop
 80009d6:	bf00      	nop
 80009d8:	bf00      	nop
 80009da:	bf00      	nop
 80009dc:	bf00      	nop
 80009de:	bf00      	nop
 80009e0:	bf00      	nop
 80009e2:	bf00      	nop
 80009e4:	bf00      	nop
 80009e6:	bf00      	nop
 80009e8:	bf00      	nop
 80009ea:	bf00      	nop
 80009ec:	bf00      	nop
 80009ee:	bf00      	nop
 80009f0:	bf00      	nop
 80009f2:	bf00      	nop
 80009f4:	bf00      	nop
 80009f6:	bf00      	nop
 80009f8:	bf00      	nop
 80009fa:	bf00      	nop
 80009fc:	bf00      	nop
 80009fe:	bf00      	nop
 8000a00:	bf00      	nop
 8000a02:	bf00      	nop
 8000a04:	bf00      	nop
 8000a06:	bf00      	nop
 8000a08:	bf00      	nop
 8000a0a:	bf00      	nop
 8000a0c:	bf00      	nop
 8000a0e:	bf00      	nop
 8000a10:	bf00      	nop
 8000a12:	bf00      	nop
 8000a14:	bf00      	nop
 8000a16:	f8df 00e4 	ldr.w	r0, [pc, #228]	; 8000afc <fnReset_IRQ+0x94c>
 8000a1a:	6801      	ldr	r1, [r0, #0]
 8000a1c:	f441 0170 	orr.w	r1, r1, #15728640	; 0xf00000
 8000a20:	6001      	str	r1, [r0, #0]
 8000a22:	f3bf 8f4f 	dsb	sy
 8000a26:	f3bf 8f6f 	isb	sy
 8000a2a:	4b31      	ldr	r3, [pc, #196]	; (8000af0 <fnReset_IRQ+0x940>)
 8000a2c:	2205      	movs	r2, #5
 8000a2e:	601a      	str	r2, [r3, #0]
 8000a30:	4b30      	ldr	r3, [pc, #192]	; (8000af4 <fnReset_IRQ+0x944>)
 8000a32:	681b      	ldr	r3, [r3, #0]
 8000a34:	f043 0320 	orr.w	r3, r3, #32
 8000a38:	4a2e      	ldr	r2, [pc, #184]	; (8000af4 <fnReset_IRQ+0x944>)
 8000a3a:	6013      	str	r3, [r2, #0]
 8000a3c:	4b2d      	ldr	r3, [pc, #180]	; (8000af4 <fnReset_IRQ+0x944>)
 8000a3e:	681b      	ldr	r3, [r3, #0]
 8000a40:	f003 0301 	and.w	r3, r3, #1
 8000a44:	2b00      	cmp	r3, #0
 8000a46:	d002      	beq.n	8000a4e <fnReset_IRQ+0x89e>
 8000a48:	4b2b      	ldr	r3, [pc, #172]	; (8000af8 <fnReset_IRQ+0x948>)
 8000a4a:	2201      	movs	r2, #1
 8000a4c:	601a      	str	r2, [r3, #0]
 8000a4e:	4b29      	ldr	r3, [pc, #164]	; (8000af4 <fnReset_IRQ+0x944>)
 8000a50:	681b      	ldr	r3, [r3, #0]
 8000a52:	f003 0302 	and.w	r3, r3, #2
 8000a56:	2b00      	cmp	r3, #0
 8000a58:	d002      	beq.n	8000a60 <fnReset_IRQ+0x8b0>
 8000a5a:	4b27      	ldr	r3, [pc, #156]	; (8000af8 <fnReset_IRQ+0x948>)
 8000a5c:	2202      	movs	r2, #2
 8000a5e:	601a      	str	r2, [r3, #0]
 8000a60:	4b24      	ldr	r3, [pc, #144]	; (8000af4 <fnReset_IRQ+0x944>)
 8000a62:	681b      	ldr	r3, [r3, #0]
 8000a64:	f003 0304 	and.w	r3, r3, #4
 8000a68:	2b00      	cmp	r3, #0
 8000a6a:	d002      	beq.n	8000a72 <fnReset_IRQ+0x8c2>
 8000a6c:	4b22      	ldr	r3, [pc, #136]	; (8000af8 <fnReset_IRQ+0x948>)
 8000a6e:	2204      	movs	r2, #4
 8000a70:	601a      	str	r2, [r3, #0]
 8000a72:	4b20      	ldr	r3, [pc, #128]	; (8000af4 <fnReset_IRQ+0x944>)
 8000a74:	681b      	ldr	r3, [r3, #0]
 8000a76:	f003 0308 	and.w	r3, r3, #8
 8000a7a:	2b00      	cmp	r3, #0
 8000a7c:	d002      	beq.n	8000a84 <fnReset_IRQ+0x8d4>
 8000a7e:	4b1e      	ldr	r3, [pc, #120]	; (8000af8 <fnReset_IRQ+0x948>)
 8000a80:	2208      	movs	r2, #8
 8000a82:	601a      	str	r2, [r3, #0]
 8000a84:	4b1b      	ldr	r3, [pc, #108]	; (8000af4 <fnReset_IRQ+0x944>)
 8000a86:	681b      	ldr	r3, [r3, #0]
 8000a88:	f003 0310 	and.w	r3, r3, #16
 8000a8c:	2b00      	cmp	r3, #0
 8000a8e:	d002      	beq.n	8000a96 <fnReset_IRQ+0x8e6>
 8000a90:	4b19      	ldr	r3, [pc, #100]	; (8000af8 <fnReset_IRQ+0x948>)
 8000a92:	2210      	movs	r2, #16
 8000a94:	601a      	str	r2, [r3, #0]
 8000a96:	4b17      	ldr	r3, [pc, #92]	; (8000af4 <fnReset_IRQ+0x944>)
 8000a98:	681b      	ldr	r3, [r3, #0]
 8000a9a:	f003 0320 	and.w	r3, r3, #32
 8000a9e:	2b00      	cmp	r3, #0
 8000aa0:	d002      	beq.n	8000aa8 <fnReset_IRQ+0x8f8>
 8000aa2:	4b15      	ldr	r3, [pc, #84]	; (8000af8 <fnReset_IRQ+0x948>)
 8000aa4:	2220      	movs	r2, #32
 8000aa6:	601a      	str	r2, [r3, #0]
 8000aa8:	bf00      	nop
 8000aaa:	bf00      	nop
 8000aac:	bf00      	nop
 8000aae:	bf00      	nop
 8000ab0:	bf00      	nop
 8000ab2:	bf00      	nop
 8000ab4:	bf00      	nop
 8000ab6:	bf00      	nop
 8000ab8:	bf00      	nop
 8000aba:	bf00      	nop
 8000abc:	bf00      	nop
 8000abe:	bf00      	nop
 8000ac0:	bf00      	nop
 8000ac2:	bf00      	nop
 8000ac4:	bf00      	nop
 8000ac6:	bf00      	nop
 8000ac8:	bf00      	nop
 8000aca:	bf00      	nop
 8000acc:	bf00      	nop
 8000ace:	bf00      	nop
 8000ad0:	bf00      	nop
 8000ad2:	bf00      	nop
 8000ad4:	bf00      	nop
 8000ad6:	bf00      	nop
 8000ad8:	f000 fcf7 	bl	80014ca <main>
 8000adc:	bf00      	nop
 8000ade:	3708      	adds	r7, #8
 8000ae0:	46bd      	mov	sp, r7
 8000ae2:	bd80      	pop	{r7, pc}
 8000ae4:	4800081c 	.word	0x4800081c
 8000ae8:	48000820 	.word	0x48000820
 8000aec:	48000824 	.word	0x48000824
 8000af0:	40010030 	.word	0x40010030
 8000af4:	20000004 	.word	0x20000004
 8000af8:	48000018 	.word	0x48000018
 8000afc:	e000ed88 	.word	0xe000ed88

08000b00 <fnDoPulse>:
 8000b00:	b480      	push	{r7}
 8000b02:	af00      	add	r7, sp, #0
 8000b04:	4b0c      	ldr	r3, [pc, #48]	; (8000b38 <fnDoPulse+0x38>)
 8000b06:	f44f 7200 	mov.w	r2, #512	; 0x200
 8000b0a:	601a      	str	r2, [r3, #0]
 8000b0c:	bf00      	nop
 8000b0e:	bf00      	nop
 8000b10:	bf00      	nop
 8000b12:	bf00      	nop
 8000b14:	bf00      	nop
 8000b16:	bf00      	nop
 8000b18:	bf00      	nop
 8000b1a:	bf00      	nop
 8000b1c:	bf00      	nop
 8000b1e:	bf00      	nop
 8000b20:	bf00      	nop
 8000b22:	bf00      	nop
 8000b24:	4b04      	ldr	r3, [pc, #16]	; (8000b38 <fnDoPulse+0x38>)
 8000b26:	f04f 7200 	mov.w	r2, #33554432	; 0x2000000
 8000b2a:	601a      	str	r2, [r3, #0]
 8000b2c:	bf00      	nop
 8000b2e:	46bd      	mov	sp, r7
 8000b30:	f85d 7b04 	ldr.w	r7, [sp], #4
 8000b34:	4770      	bx	lr
 8000b36:	bf00      	nop
 8000b38:	48000018 	.word	0x48000018

08000b3c <fnPulseByteOut>:
 8000b3c:	b480      	push	{r7}
 8000b3e:	b085      	sub	sp, #20
 8000b40:	af00      	add	r7, sp, #0
 8000b42:	4603      	mov	r3, r0
 8000b44:	71fb      	strb	r3, [r7, #7]
 8000b46:	2380      	movs	r3, #128	; 0x80
 8000b48:	737b      	strb	r3, [r7, #13]
 8000b4a:	4b2b      	ldr	r3, [pc, #172]	; (8000bf8 <fnPulseByteOut+0xbc>)
 8000b4c:	f44f 0280 	mov.w	r2, #4194304	; 0x400000
 8000b50:	601a      	str	r2, [r3, #0]
 8000b52:	4b29      	ldr	r3, [pc, #164]	; (8000bf8 <fnPulseByteOut+0xbc>)
 8000b54:	f44f 0200 	mov.w	r2, #8388608	; 0x800000
 8000b58:	601a      	str	r2, [r3, #0]
 8000b5a:	2300      	movs	r3, #0
 8000b5c:	81fb      	strh	r3, [r7, #14]
 8000b5e:	e02a      	b.n	8000bb6 <fnPulseByteOut+0x7a>
 8000b60:	79fa      	ldrb	r2, [r7, #7]
 8000b62:	7b7b      	ldrb	r3, [r7, #13]
 8000b64:	4013      	ands	r3, r2
 8000b66:	b2db      	uxtb	r3, r3
 8000b68:	2b00      	cmp	r3, #0
 8000b6a:	d003      	beq.n	8000b74 <fnPulseByteOut+0x38>
 8000b6c:	4b22      	ldr	r3, [pc, #136]	; (8000bf8 <fnPulseByteOut+0xbc>)
 8000b6e:	2240      	movs	r2, #64	; 0x40
 8000b70:	601a      	str	r2, [r3, #0]
 8000b72:	e003      	b.n	8000b7c <fnPulseByteOut+0x40>
 8000b74:	4b20      	ldr	r3, [pc, #128]	; (8000bf8 <fnPulseByteOut+0xbc>)
 8000b76:	f44f 0280 	mov.w	r2, #4194304	; 0x400000
 8000b7a:	601a      	str	r2, [r3, #0]
 8000b7c:	bf00      	nop
 8000b7e:	bf00      	nop
 8000b80:	bf00      	nop
 8000b82:	bf00      	nop
 8000b84:	4b1c      	ldr	r3, [pc, #112]	; (8000bf8 <fnPulseByteOut+0xbc>)
 8000b86:	2280      	movs	r2, #128	; 0x80
 8000b88:	601a      	str	r2, [r3, #0]
 8000b8a:	bf00      	nop
 8000b8c:	bf00      	nop
 8000b8e:	bf00      	nop
 8000b90:	bf00      	nop
 8000b92:	4b19      	ldr	r3, [pc, #100]	; (8000bf8 <fnPulseByteOut+0xbc>)
 8000b94:	f44f 0200 	mov.w	r2, #8388608	; 0x800000
 8000b98:	601a      	str	r2, [r3, #0]
 8000b9a:	bf00      	nop
 8000b9c:	bf00      	nop
 8000b9e:	bf00      	nop
 8000ba0:	bf00      	nop
 8000ba2:	4b15      	ldr	r3, [pc, #84]	; (8000bf8 <fnPulseByteOut+0xbc>)
 8000ba4:	f44f 0280 	mov.w	r2, #4194304	; 0x400000
 8000ba8:	601a      	str	r2, [r3, #0]
 8000baa:	7b7b      	ldrb	r3, [r7, #13]
 8000bac:	085b      	lsrs	r3, r3, #1
 8000bae:	737b      	strb	r3, [r7, #13]
 8000bb0:	89fb      	ldrh	r3, [r7, #14]
 8000bb2:	3301      	adds	r3, #1
 8000bb4:	81fb      	strh	r3, [r7, #14]
 8000bb6:	89fb      	ldrh	r3, [r7, #14]
 8000bb8:	2b07      	cmp	r3, #7
 8000bba:	d9d1      	bls.n	8000b60 <fnPulseByteOut+0x24>
 8000bbc:	bf00      	nop
 8000bbe:	bf00      	nop
 8000bc0:	bf00      	nop
 8000bc2:	bf00      	nop
 8000bc4:	bf00      	nop
 8000bc6:	bf00      	nop
 8000bc8:	bf00      	nop
 8000bca:	bf00      	nop
 8000bcc:	bf00      	nop
 8000bce:	bf00      	nop
 8000bd0:	bf00      	nop
 8000bd2:	bf00      	nop
 8000bd4:	bf00      	nop
 8000bd6:	bf00      	nop
 8000bd8:	bf00      	nop
 8000bda:	bf00      	nop
 8000bdc:	bf00      	nop
 8000bde:	bf00      	nop
 8000be0:	bf00      	nop
 8000be2:	bf00      	nop
 8000be4:	bf00      	nop
 8000be6:	bf00      	nop
 8000be8:	bf00      	nop
 8000bea:	bf00      	nop
 8000bec:	bf00      	nop
 8000bee:	3714      	adds	r7, #20
 8000bf0:	46bd      	mov	sp, r7
 8000bf2:	f85d 7b04 	ldr.w	r7, [sp], #4
 8000bf6:	4770      	bx	lr
 8000bf8:	48000018 	.word	0x48000018

08000bfc <fnPulseWordOut>:
 8000bfc:	b480      	push	{r7}
 8000bfe:	b085      	sub	sp, #20
 8000c00:	af00      	add	r7, sp, #0
 8000c02:	4603      	mov	r3, r0
 8000c04:	80fb      	strh	r3, [r7, #6]
 8000c06:	f44f 4300 	mov.w	r3, #32768	; 0x8000
 8000c0a:	81bb      	strh	r3, [r7, #12]
 8000c0c:	4b2b      	ldr	r3, [pc, #172]	; (8000cbc <fnPulseWordOut+0xc0>)
 8000c0e:	f44f 0280 	mov.w	r2, #4194304	; 0x400000
 8000c12:	601a      	str	r2, [r3, #0]
 8000c14:	4b29      	ldr	r3, [pc, #164]	; (8000cbc <fnPulseWordOut+0xc0>)
 8000c16:	f44f 0200 	mov.w	r2, #8388608	; 0x800000
 8000c1a:	601a      	str	r2, [r3, #0]
 8000c1c:	2300      	movs	r3, #0
 8000c1e:	81fb      	strh	r3, [r7, #14]
 8000c20:	e02a      	b.n	8000c78 <fnPulseWordOut+0x7c>
 8000c22:	88fa      	ldrh	r2, [r7, #6]
 8000c24:	89bb      	ldrh	r3, [r7, #12]
 8000c26:	4013      	ands	r3, r2
 8000c28:	b29b      	uxth	r3, r3
 8000c2a:	2b00      	cmp	r3, #0
 8000c2c:	d003      	beq.n	8000c36 <fnPulseWordOut+0x3a>
 8000c2e:	4b23      	ldr	r3, [pc, #140]	; (8000cbc <fnPulseWordOut+0xc0>)
 8000c30:	2240      	movs	r2, #64	; 0x40
 8000c32:	601a      	str	r2, [r3, #0]
 8000c34:	e003      	b.n	8000c3e <fnPulseWordOut+0x42>
 8000c36:	4b21      	ldr	r3, [pc, #132]	; (8000cbc <fnPulseWordOut+0xc0>)
 8000c38:	f44f 0280 	mov.w	r2, #4194304	; 0x400000
 8000c3c:	601a      	str	r2, [r3, #0]
 8000c3e:	bf00      	nop
 8000c40:	bf00      	nop
 8000c42:	bf00      	nop
 8000c44:	bf00      	nop
 8000c46:	4b1d      	ldr	r3, [pc, #116]	; (8000cbc <fnPulseWordOut+0xc0>)
 8000c48:	2280      	movs	r2, #128	; 0x80
 8000c4a:	601a      	str	r2, [r3, #0]
 8000c4c:	bf00      	nop
 8000c4e:	bf00      	nop
 8000c50:	bf00      	nop
 8000c52:	bf00      	nop
 8000c54:	4b19      	ldr	r3, [pc, #100]	; (8000cbc <fnPulseWordOut+0xc0>)
 8000c56:	f44f 0200 	mov.w	r2, #8388608	; 0x800000
 8000c5a:	601a      	str	r2, [r3, #0]
 8000c5c:	bf00      	nop
 8000c5e:	bf00      	nop
 8000c60:	bf00      	nop
 8000c62:	bf00      	nop
 8000c64:	4b15      	ldr	r3, [pc, #84]	; (8000cbc <fnPulseWordOut+0xc0>)
 8000c66:	f44f 0280 	mov.w	r2, #4194304	; 0x400000
 8000c6a:	601a      	str	r2, [r3, #0]
 8000c6c:	89bb      	ldrh	r3, [r7, #12]
 8000c6e:	085b      	lsrs	r3, r3, #1
 8000c70:	81bb      	strh	r3, [r7, #12]
 8000c72:	89fb      	ldrh	r3, [r7, #14]
 8000c74:	3301      	adds	r3, #1
 8000c76:	81fb      	strh	r3, [r7, #14]
 8000c78:	89fb      	ldrh	r3, [r7, #14]
 8000c7a:	2b0f      	cmp	r3, #15
 8000c7c:	d9d1      	bls.n	8000c22 <fnPulseWordOut+0x26>
 8000c7e:	bf00      	nop
 8000c80:	bf00      	nop
 8000c82:	bf00      	nop
 8000c84:	bf00      	nop
 8000c86:	bf00      	nop
 8000c88:	bf00      	nop
 8000c8a:	bf00      	nop
 8000c8c:	bf00      	nop
 8000c8e:	bf00      	nop
 8000c90:	bf00      	nop
 8000c92:	bf00      	nop
 8000c94:	bf00      	nop
 8000c96:	bf00      	nop
 8000c98:	bf00      	nop
 8000c9a:	bf00      	nop
 8000c9c:	bf00      	nop
 8000c9e:	bf00      	nop
 8000ca0:	bf00      	nop
 8000ca2:	bf00      	nop
 8000ca4:	bf00      	nop
 8000ca6:	bf00      	nop
 8000ca8:	bf00      	nop
 8000caa:	bf00      	nop
 8000cac:	bf00      	nop
 8000cae:	bf00      	nop
 8000cb0:	3714      	adds	r7, #20
 8000cb2:	46bd      	mov	sp, r7
 8000cb4:	f85d 7b04 	ldr.w	r7, [sp], #4
 8000cb8:	4770      	bx	lr
 8000cba:	bf00      	nop
 8000cbc:	48000018 	.word	0x48000018

08000cc0 <fnPulseLongOut>:
 8000cc0:	b480      	push	{r7}
 8000cc2:	b085      	sub	sp, #20
 8000cc4:	af00      	add	r7, sp, #0
 8000cc6:	6078      	str	r0, [r7, #4]
 8000cc8:	f04f 4300 	mov.w	r3, #2147483648	; 0x80000000
 8000ccc:	60bb      	str	r3, [r7, #8]
 8000cce:	4b2b      	ldr	r3, [pc, #172]	; (8000d7c <fnPulseLongOut+0xbc>)
 8000cd0:	f44f 0280 	mov.w	r2, #4194304	; 0x400000
 8000cd4:	601a      	str	r2, [r3, #0]
 8000cd6:	4b29      	ldr	r3, [pc, #164]	; (8000d7c <fnPulseLongOut+0xbc>)
 8000cd8:	f44f 0200 	mov.w	r2, #8388608	; 0x800000
 8000cdc:	601a      	str	r2, [r3, #0]
 8000cde:	2300      	movs	r3, #0
 8000ce0:	81fb      	strh	r3, [r7, #14]
 8000ce2:	e029      	b.n	8000d38 <fnPulseLongOut+0x78>
 8000ce4:	687a      	ldr	r2, [r7, #4]
 8000ce6:	68bb      	ldr	r3, [r7, #8]
 8000ce8:	4013      	ands	r3, r2
 8000cea:	2b00      	cmp	r3, #0
 8000cec:	d003      	beq.n	8000cf6 <fnPulseLongOut+0x36>
 8000cee:	4b23      	ldr	r3, [pc, #140]	; (8000d7c <fnPulseLongOut+0xbc>)
 8000cf0:	2240      	movs	r2, #64	; 0x40
 8000cf2:	601a      	str	r2, [r3, #0]
 8000cf4:	e003      	b.n	8000cfe <fnPulseLongOut+0x3e>
 8000cf6:	4b21      	ldr	r3, [pc, #132]	; (8000d7c <fnPulseLongOut+0xbc>)
 8000cf8:	f44f 0280 	mov.w	r2, #4194304	; 0x400000
 8000cfc:	601a      	str	r2, [r3, #0]
 8000cfe:	bf00      	nop
 8000d00:	bf00      	nop
 8000d02:	bf00      	nop
 8000d04:	bf00      	nop
 8000d06:	4b1d      	ldr	r3, [pc, #116]	; (8000d7c <fnPulseLongOut+0xbc>)
 8000d08:	2280      	movs	r2, #128	; 0x80
 8000d0a:	601a      	str	r2, [r3, #0]
 8000d0c:	bf00      	nop
 8000d0e:	bf00      	nop
 8000d10:	bf00      	nop
 8000d12:	bf00      	nop
 8000d14:	4b19      	ldr	r3, [pc, #100]	; (8000d7c <fnPulseLongOut+0xbc>)
 8000d16:	f44f 0200 	mov.w	r2, #8388608	; 0x800000
 8000d1a:	601a      	str	r2, [r3, #0]
 8000d1c:	bf00      	nop
 8000d1e:	bf00      	nop
 8000d20:	bf00      	nop
 8000d22:	bf00      	nop
 8000d24:	4b15      	ldr	r3, [pc, #84]	; (8000d7c <fnPulseLongOut+0xbc>)
 8000d26:	f44f 0280 	mov.w	r2, #4194304	; 0x400000
 8000d2a:	601a      	str	r2, [r3, #0]
 8000d2c:	68bb      	ldr	r3, [r7, #8]
 8000d2e:	085b      	lsrs	r3, r3, #1
 8000d30:	60bb      	str	r3, [r7, #8]
 8000d32:	89fb      	ldrh	r3, [r7, #14]
 8000d34:	3301      	adds	r3, #1
 8000d36:	81fb      	strh	r3, [r7, #14]
 8000d38:	89fb      	ldrh	r3, [r7, #14]
 8000d3a:	2b1f      	cmp	r3, #31
 8000d3c:	d9d2      	bls.n	8000ce4 <fnPulseLongOut+0x24>
 8000d3e:	bf00      	nop
 8000d40:	bf00      	nop
 8000d42:	bf00      	nop
 8000d44:	bf00      	nop
 8000d46:	bf00      	nop
 8000d48:	bf00      	nop
 8000d4a:	bf00      	nop
 8000d4c:	bf00      	nop
 8000d4e:	bf00      	nop
 8000d50:	bf00      	nop
 8000d52:	bf00      	nop
 8000d54:	bf00      	nop
 8000d56:	bf00      	nop
 8000d58:	bf00      	nop
 8000d5a:	bf00      	nop
 8000d5c:	bf00      	nop
 8000d5e:	bf00      	nop
 8000d60:	bf00      	nop
 8000d62:	bf00      	nop
 8000d64:	bf00      	nop
 8000d66:	bf00      	nop
 8000d68:	bf00      	nop
 8000d6a:	bf00      	nop
 8000d6c:	bf00      	nop
 8000d6e:	bf00      	nop
 8000d70:	3714      	adds	r7, #20
 8000d72:	46bd      	mov	sp, r7
 8000d74:	f85d 7b04 	ldr.w	r7, [sp], #4
 8000d78:	4770      	bx	lr
 8000d7a:	bf00      	nop
 8000d7c:	48000018 	.word	0x48000018

08000d80 <NVIC_EnableIRQ>:
 8000d80:	b480      	push	{r7}
 8000d82:	b083      	sub	sp, #12
 8000d84:	af00      	add	r7, sp, #0
 8000d86:	6078      	str	r0, [r7, #4]
 8000d88:	687b      	ldr	r3, [r7, #4]
 8000d8a:	f003 021f 	and.w	r2, r3, #31
 8000d8e:	4907      	ldr	r1, [pc, #28]	; (8000dac <NVIC_EnableIRQ+0x2c>)
 8000d90:	687b      	ldr	r3, [r7, #4]
 8000d92:	095b      	lsrs	r3, r3, #5
 8000d94:	2001      	movs	r0, #1
 8000d96:	fa00 f202 	lsl.w	r2, r0, r2
 8000d9a:	f841 2023 	str.w	r2, [r1, r3, lsl #2]
 8000d9e:	bf00      	nop
 8000da0:	370c      	adds	r7, #12
 8000da2:	46bd      	mov	sp, r7
 8000da4:	f85d 7b04 	ldr.w	r7, [sp], #4
 8000da8:	4770      	bx	lr
 8000daa:	bf00      	nop
 8000dac:	e000e100 	.word	0xe000e100

08000db0 <NVIC_DisableIRQ>:
 8000db0:	b480      	push	{r7}
 8000db2:	b083      	sub	sp, #12
 8000db4:	af00      	add	r7, sp, #0
 8000db6:	6078      	str	r0, [r7, #4]
 8000db8:	687b      	ldr	r3, [r7, #4]
 8000dba:	f003 021f 	and.w	r2, r3, #31
 8000dbe:	4907      	ldr	r1, [pc, #28]	; (8000ddc <NVIC_DisableIRQ+0x2c>)
 8000dc0:	687b      	ldr	r3, [r7, #4]
 8000dc2:	095b      	lsrs	r3, r3, #5
 8000dc4:	2001      	movs	r0, #1
 8000dc6:	fa00 f202 	lsl.w	r2, r0, r2
 8000dca:	3320      	adds	r3, #32
 8000dcc:	f841 2023 	str.w	r2, [r1, r3, lsl #2]
 8000dd0:	bf00      	nop
 8000dd2:	370c      	adds	r7, #12
 8000dd4:	46bd      	mov	sp, r7
 8000dd6:	f85d 7b04 	ldr.w	r7, [sp], #4
 8000dda:	4770      	bx	lr
 8000ddc:	e000e100 	.word	0xe000e100

08000de0 <NVIC_ClearPendingIRQ>:
 8000de0:	b480      	push	{r7}
 8000de2:	b083      	sub	sp, #12
 8000de4:	af00      	add	r7, sp, #0
 8000de6:	6078      	str	r0, [r7, #4]
 8000de8:	687b      	ldr	r3, [r7, #4]
 8000dea:	f003 021f 	and.w	r2, r3, #31
 8000dee:	4907      	ldr	r1, [pc, #28]	; (8000e0c <NVIC_ClearPendingIRQ+0x2c>)
 8000df0:	687b      	ldr	r3, [r7, #4]
 8000df2:	095b      	lsrs	r3, r3, #5
 8000df4:	2001      	movs	r0, #1
 8000df6:	fa00 f202 	lsl.w	r2, r0, r2
 8000dfa:	3360      	adds	r3, #96	; 0x60
 8000dfc:	f841 2023 	str.w	r2, [r1, r3, lsl #2]
 8000e00:	bf00      	nop
 8000e02:	370c      	adds	r7, #12
 8000e04:	46bd      	mov	sp, r7
 8000e06:	f85d 7b04 	ldr.w	r7, [sp], #4
 8000e0a:	4770      	bx	lr
 8000e0c:	e000e100 	.word	0xe000e100

08000e10 <NVIC_SetPriority>:
 8000e10:	b480      	push	{r7}
 8000e12:	b083      	sub	sp, #12
 8000e14:	af00      	add	r7, sp, #0
 8000e16:	6078      	str	r0, [r7, #4]
 8000e18:	6039      	str	r1, [r7, #0]
 8000e1a:	683b      	ldr	r3, [r7, #0]
 8000e1c:	b2db      	uxtb	r3, r3
 8000e1e:	4a07      	ldr	r2, [pc, #28]	; (8000e3c <NVIC_SetPriority+0x2c>)
 8000e20:	011b      	lsls	r3, r3, #4
 8000e22:	b2d9      	uxtb	r1, r3
 8000e24:	687b      	ldr	r3, [r7, #4]
 8000e26:	4413      	add	r3, r2
 8000e28:	f503 7340 	add.w	r3, r3, #768	; 0x300
 8000e2c:	460a      	mov	r2, r1
 8000e2e:	701a      	strb	r2, [r3, #0]
 8000e30:	bf00      	nop
 8000e32:	370c      	adds	r7, #12
 8000e34:	46bd      	mov	sp, r7
 8000e36:	f85d 7b04 	ldr.w	r7, [sp], #4
 8000e3a:	4770      	bx	lr
 8000e3c:	e000e100 	.word	0xe000e100

08000e40 <fnInitNVIC>:
 8000e40:	b580      	push	{r7, lr}
 8000e42:	b082      	sub	sp, #8
 8000e44:	af00      	add	r7, sp, #0
 8000e46:	b672      	cpsid	i
 8000e48:	4b0f      	ldr	r3, [pc, #60]	; (8000e88 <fnInitNVIC+0x48>)
 8000e4a:	4a10      	ldr	r2, [pc, #64]	; (8000e8c <fnInitNVIC+0x4c>)
 8000e4c:	601a      	str	r2, [r3, #0]
 8000e4e:	2300      	movs	r3, #0
 8000e50:	80fb      	strh	r3, [r7, #6]
 8000e52:	e010      	b.n	8000e76 <fnInitNVIC+0x36>
 8000e54:	88fb      	ldrh	r3, [r7, #6]
 8000e56:	4a0e      	ldr	r2, [pc, #56]	; (8000e90 <fnInitNVIC+0x50>)
 8000e58:	5cd3      	ldrb	r3, [r2, r3]
 8000e5a:	717b      	strb	r3, [r7, #5]
 8000e5c:	797b      	ldrb	r3, [r7, #5]
 8000e5e:	f003 030f 	and.w	r3, r3, #15
 8000e62:	713b      	strb	r3, [r7, #4]
 8000e64:	793a      	ldrb	r2, [r7, #4]
 8000e66:	88fb      	ldrh	r3, [r7, #6]
 8000e68:	4611      	mov	r1, r2
 8000e6a:	4618      	mov	r0, r3
 8000e6c:	f000 faa1 	bl	80013b2 <fnSetIntPriority>
 8000e70:	88fb      	ldrh	r3, [r7, #6]
 8000e72:	3301      	adds	r3, #1
 8000e74:	80fb      	strh	r3, [r7, #6]
 8000e76:	88fb      	ldrh	r3, [r7, #6]
 8000e78:	2b60      	cmp	r3, #96	; 0x60
 8000e7a:	d9eb      	bls.n	8000e54 <fnInitNVIC+0x14>
 8000e7c:	b662      	cpsie	i
 8000e7e:	bf00      	nop
 8000e80:	3708      	adds	r7, #8
 8000e82:	46bd      	mov	sp, r7
 8000e84:	bd80      	pop	{r7, pc}
 8000e86:	bf00      	nop
 8000e88:	e000ed0c 	.word	0xe000ed0c
 8000e8c:	05fa0000 	.word	0x05fa0000
 8000e90:	080014f4 	.word	0x080014f4

08000e94 <fnNull_IRQ>:
 8000e94:	b480      	push	{r7}
 8000e96:	af00      	add	r7, sp, #0
 8000e98:	bf00      	nop
 8000e9a:	46bd      	mov	sp, r7
 8000e9c:	f85d 7b04 	ldr.w	r7, [sp], #4
 8000ea0:	4770      	bx	lr

08000ea2 <fnNMI_IRQ>:
 8000ea2:	b480      	push	{r7}
 8000ea4:	af00      	add	r7, sp, #0
 8000ea6:	bf00      	nop
 8000ea8:	46bd      	mov	sp, r7
 8000eaa:	f85d 7b04 	ldr.w	r7, [sp], #4
 8000eae:	4770      	bx	lr

08000eb0 <fnHardFault_IRQ>:
 8000eb0:	b480      	push	{r7}
 8000eb2:	af00      	add	r7, sp, #0
 8000eb4:	bf00      	nop
 8000eb6:	46bd      	mov	sp, r7
 8000eb8:	f85d 7b04 	ldr.w	r7, [sp], #4
 8000ebc:	4770      	bx	lr

08000ebe <fnMemManage_IRQ>:
 8000ebe:	b480      	push	{r7}
 8000ec0:	af00      	add	r7, sp, #0
 8000ec2:	bf00      	nop
 8000ec4:	46bd      	mov	sp, r7
 8000ec6:	f85d 7b04 	ldr.w	r7, [sp], #4
 8000eca:	4770      	bx	lr

08000ecc <fnBusFault_IRQ>:
 8000ecc:	b480      	push	{r7}
 8000ece:	af00      	add	r7, sp, #0
 8000ed0:	bf00      	nop
 8000ed2:	46bd      	mov	sp, r7
 8000ed4:	f85d 7b04 	ldr.w	r7, [sp], #4
 8000ed8:	4770      	bx	lr

08000eda <fnIllegal_IRQ>:
 8000eda:	b480      	push	{r7}
 8000edc:	af00      	add	r7, sp, #0
 8000ede:	bf00      	nop
 8000ee0:	46bd      	mov	sp, r7
 8000ee2:	f85d 7b04 	ldr.w	r7, [sp], #4
 8000ee6:	4770      	bx	lr

08000ee8 <fnSVC_IRQ>:
 8000ee8:	b480      	push	{r7}
 8000eea:	af00      	add	r7, sp, #0
 8000eec:	4b19      	ldr	r3, [pc, #100]	; (8000f54 <fnSVC_IRQ+0x6c>)
 8000eee:	781b      	ldrb	r3, [r3, #0]
 8000ef0:	2b0f      	cmp	r3, #15
 8000ef2:	d828      	bhi.n	8000f46 <fnSVC_IRQ+0x5e>
 8000ef4:	a201      	add	r2, pc, #4	; (adr r2, 8000efc <fnSVC_IRQ+0x14>)
 8000ef6:	f852 f023 	ldr.w	pc, [r2, r3, lsl #2]
 8000efa:	bf00      	nop
 8000efc:	08000f47 	.word	0x08000f47
 8000f00:	08000f47 	.word	0x08000f47
 8000f04:	08000f47 	.word	0x08000f47
 8000f08:	08000f47 	.word	0x08000f47
 8000f0c:	08000f47 	.word	0x08000f47
 8000f10:	08000f3d 	.word	0x08000f3d
 8000f14:	08000f47 	.word	0x08000f47
 8000f18:	08000f47 	.word	0x08000f47
 8000f1c:	08000f47 	.word	0x08000f47
 8000f20:	08000f47 	.word	0x08000f47
 8000f24:	08000f47 	.word	0x08000f47
 8000f28:	08000f47 	.word	0x08000f47
 8000f2c:	08000f47 	.word	0x08000f47
 8000f30:	08000f47 	.word	0x08000f47
 8000f34:	08000f47 	.word	0x08000f47
 8000f38:	08000f47 	.word	0x08000f47
 8000f3c:	f04f 0000 	mov.w	r0, #0
 8000f40:	f380 8814 	msr	CONTROL, r0
 8000f44:	e000      	b.n	8000f48 <fnSVC_IRQ+0x60>
 8000f46:	bf00      	nop
 8000f48:	bf00      	nop
 8000f4a:	46bd      	mov	sp, r7
 8000f4c:	f85d 7b04 	ldr.w	r7, [sp], #4
 8000f50:	4770      	bx	lr
 8000f52:	bf00      	nop
 8000f54:	2000000c 	.word	0x2000000c

08000f58 <fnDebug_IRQ>:
 8000f58:	b480      	push	{r7}
 8000f5a:	af00      	add	r7, sp, #0
 8000f5c:	bf00      	nop
 8000f5e:	46bd      	mov	sp, r7
 8000f60:	f85d 7b04 	ldr.w	r7, [sp], #4
 8000f64:	4770      	bx	lr

08000f66 <fnPendSVC_IRQ>:
 8000f66:	b480      	push	{r7}
 8000f68:	af00      	add	r7, sp, #0
 8000f6a:	bf00      	nop
 8000f6c:	46bd      	mov	sp, r7
 8000f6e:	f85d 7b04 	ldr.w	r7, [sp], #4
 8000f72:	4770      	bx	lr

08000f74 <fnSysTick_IRQ>:
 8000f74:	b480      	push	{r7}
 8000f76:	af00      	add	r7, sp, #0
 8000f78:	bf00      	nop
 8000f7a:	46bd      	mov	sp, r7
 8000f7c:	f85d 7b04 	ldr.w	r7, [sp], #4
 8000f80:	4770      	bx	lr

08000f82 <fnWWDG_IRQ>:
 8000f82:	b480      	push	{r7}
 8000f84:	af00      	add	r7, sp, #0
 8000f86:	bf00      	nop
 8000f88:	46bd      	mov	sp, r7
 8000f8a:	f85d 7b04 	ldr.w	r7, [sp], #4
 8000f8e:	4770      	bx	lr

08000f90 <fnPVD_IRQ>:
 8000f90:	b480      	push	{r7}
 8000f92:	af00      	add	r7, sp, #0
 8000f94:	bf00      	nop
 8000f96:	46bd      	mov	sp, r7
 8000f98:	f85d 7b04 	ldr.w	r7, [sp], #4
 8000f9c:	4770      	bx	lr

08000f9e <fnRTC_IRQ>:
 8000f9e:	b480      	push	{r7}
 8000fa0:	af00      	add	r7, sp, #0
 8000fa2:	bf00      	nop
 8000fa4:	46bd      	mov	sp, r7
 8000fa6:	f85d 7b04 	ldr.w	r7, [sp], #4
 8000faa:	4770      	bx	lr

08000fac <fnRTC_WKUP_IRQ>:
 8000fac:	b480      	push	{r7}
 8000fae:	af00      	add	r7, sp, #0
 8000fb0:	bf00      	nop
 8000fb2:	46bd      	mov	sp, r7
 8000fb4:	f85d 7b04 	ldr.w	r7, [sp], #4
 8000fb8:	4770      	bx	lr

08000fba <fnFLASH_IRQ>:
 8000fba:	b480      	push	{r7}
 8000fbc:	af00      	add	r7, sp, #0
 8000fbe:	bf00      	nop
 8000fc0:	46bd      	mov	sp, r7
 8000fc2:	f85d 7b04 	ldr.w	r7, [sp], #4
 8000fc6:	4770      	bx	lr

08000fc8 <fnRCC_IRQ>:
 8000fc8:	b480      	push	{r7}
 8000fca:	af00      	add	r7, sp, #0
 8000fcc:	bf00      	nop
 8000fce:	46bd      	mov	sp, r7
 8000fd0:	f85d 7b04 	ldr.w	r7, [sp], #4
 8000fd4:	4770      	bx	lr

08000fd6 <fnEXTI_0_IRQ>:
 8000fd6:	b480      	push	{r7}
 8000fd8:	af00      	add	r7, sp, #0
 8000fda:	bf00      	nop
 8000fdc:	46bd      	mov	sp, r7
 8000fde:	f85d 7b04 	ldr.w	r7, [sp], #4
 8000fe2:	4770      	bx	lr

08000fe4 <fnEXTI_1_IRQ>:
 8000fe4:	b480      	push	{r7}
 8000fe6:	af00      	add	r7, sp, #0
 8000fe8:	bf00      	nop
 8000fea:	46bd      	mov	sp, r7
 8000fec:	f85d 7b04 	ldr.w	r7, [sp], #4
 8000ff0:	4770      	bx	lr

08000ff2 <fnEXTI_2_IRQ>:
 8000ff2:	b480      	push	{r7}
 8000ff4:	af00      	add	r7, sp, #0
 8000ff6:	bf00      	nop
 8000ff8:	46bd      	mov	sp, r7
 8000ffa:	f85d 7b04 	ldr.w	r7, [sp], #4
 8000ffe:	4770      	bx	lr

08001000 <fnEXTI_3_IRQ>:
 8001000:	b480      	push	{r7}
 8001002:	af00      	add	r7, sp, #0
 8001004:	bf00      	nop
 8001006:	46bd      	mov	sp, r7
 8001008:	f85d 7b04 	ldr.w	r7, [sp], #4
 800100c:	4770      	bx	lr

0800100e <fnEXTI_4_IRQ>:
 800100e:	b480      	push	{r7}
 8001010:	af00      	add	r7, sp, #0
 8001012:	bf00      	nop
 8001014:	46bd      	mov	sp, r7
 8001016:	f85d 7b04 	ldr.w	r7, [sp], #4
 800101a:	4770      	bx	lr

0800101c <fnDMA_11_IRQ>:
 800101c:	b480      	push	{r7}
 800101e:	af00      	add	r7, sp, #0
 8001020:	bf00      	nop
 8001022:	46bd      	mov	sp, r7
 8001024:	f85d 7b04 	ldr.w	r7, [sp], #4
 8001028:	4770      	bx	lr

0800102a <fnDMA_12_IRQ>:
 800102a:	b480      	push	{r7}
 800102c:	af00      	add	r7, sp, #0
 800102e:	bf00      	nop
 8001030:	46bd      	mov	sp, r7
 8001032:	f85d 7b04 	ldr.w	r7, [sp], #4
 8001036:	4770      	bx	lr

08001038 <fnDMA_13_IRQ>:
 8001038:	b480      	push	{r7}
 800103a:	af00      	add	r7, sp, #0
 800103c:	bf00      	nop
 800103e:	46bd      	mov	sp, r7
 8001040:	f85d 7b04 	ldr.w	r7, [sp], #4
 8001044:	4770      	bx	lr

08001046 <fnDMA_14_IRQ>:
 8001046:	b480      	push	{r7}
 8001048:	af00      	add	r7, sp, #0
 800104a:	bf00      	nop
 800104c:	46bd      	mov	sp, r7
 800104e:	f85d 7b04 	ldr.w	r7, [sp], #4
 8001052:	4770      	bx	lr

08001054 <fnDMA_15_IRQ>:
 8001054:	b480      	push	{r7}
 8001056:	af00      	add	r7, sp, #0
 8001058:	bf00      	nop
 800105a:	46bd      	mov	sp, r7
 800105c:	f85d 7b04 	ldr.w	r7, [sp], #4
 8001060:	4770      	bx	lr

08001062 <fnDMA_16_IRQ>:
 8001062:	b480      	push	{r7}
 8001064:	af00      	add	r7, sp, #0
 8001066:	bf00      	nop
 8001068:	46bd      	mov	sp, r7
 800106a:	f85d 7b04 	ldr.w	r7, [sp], #4
 800106e:	4770      	bx	lr

08001070 <fnDMA_17_IRQ>:
 8001070:	b480      	push	{r7}
 8001072:	af00      	add	r7, sp, #0
 8001074:	bf00      	nop
 8001076:	46bd      	mov	sp, r7
 8001078:	f85d 7b04 	ldr.w	r7, [sp], #4
 800107c:	4770      	bx	lr

0800107e <fnADC_IRQ>:
 800107e:	b480      	push	{r7}
 8001080:	af00      	add	r7, sp, #0
 8001082:	bf00      	nop
 8001084:	46bd      	mov	sp, r7
 8001086:	f85d 7b04 	ldr.w	r7, [sp], #4
 800108a:	4770      	bx	lr

0800108c <fnCAN1_TX_IRQ>:
 800108c:	b480      	push	{r7}
 800108e:	af00      	add	r7, sp, #0
 8001090:	bf00      	nop
 8001092:	46bd      	mov	sp, r7
 8001094:	f85d 7b04 	ldr.w	r7, [sp], #4
 8001098:	4770      	bx	lr

0800109a <fnCAN1_RX0_IRQ>:
 800109a:	b480      	push	{r7}
 800109c:	af00      	add	r7, sp, #0
 800109e:	bf00      	nop
 80010a0:	46bd      	mov	sp, r7
 80010a2:	f85d 7b04 	ldr.w	r7, [sp], #4
 80010a6:	4770      	bx	lr

080010a8 <fnCAN1_RX1_IRQ>:
 80010a8:	b480      	push	{r7}
 80010aa:	af00      	add	r7, sp, #0
 80010ac:	bf00      	nop
 80010ae:	46bd      	mov	sp, r7
 80010b0:	f85d 7b04 	ldr.w	r7, [sp], #4
 80010b4:	4770      	bx	lr

080010b6 <fnCAN1_SCE_IRQ>:
 80010b6:	b480      	push	{r7}
 80010b8:	af00      	add	r7, sp, #0
 80010ba:	bf00      	nop
 80010bc:	46bd      	mov	sp, r7
 80010be:	f85d 7b04 	ldr.w	r7, [sp], #4
 80010c2:	4770      	bx	lr

080010c4 <fnEXTI_5_9_IRQ>:
 80010c4:	b480      	push	{r7}
 80010c6:	af00      	add	r7, sp, #0
 80010c8:	bf00      	nop
 80010ca:	46bd      	mov	sp, r7
 80010cc:	f85d 7b04 	ldr.w	r7, [sp], #4
 80010d0:	4770      	bx	lr

080010d2 <fnTIM1_BK_TIM15_IRQ>:
 80010d2:	b480      	push	{r7}
 80010d4:	af00      	add	r7, sp, #0
 80010d6:	bf00      	nop
 80010d8:	46bd      	mov	sp, r7
 80010da:	f85d 7b04 	ldr.w	r7, [sp], #4
 80010de:	4770      	bx	lr

080010e0 <fnTIM1_UP_TIM16_IRQ>:
 80010e0:	b480      	push	{r7}
 80010e2:	af00      	add	r7, sp, #0
 80010e4:	bf00      	nop
 80010e6:	46bd      	mov	sp, r7
 80010e8:	f85d 7b04 	ldr.w	r7, [sp], #4
 80010ec:	4770      	bx	lr

080010ee <fnTIM1_TRG_COM_IRQ>:
 80010ee:	b480      	push	{r7}
 80010f0:	af00      	add	r7, sp, #0
 80010f2:	bf00      	nop
 80010f4:	46bd      	mov	sp, r7
 80010f6:	f85d 7b04 	ldr.w	r7, [sp], #4
 80010fa:	4770      	bx	lr

080010fc <fnTIM1_CC_IRQ>:
 80010fc:	b480      	push	{r7}
 80010fe:	af00      	add	r7, sp, #0
 8001100:	bf00      	nop
 8001102:	46bd      	mov	sp, r7
 8001104:	f85d 7b04 	ldr.w	r7, [sp], #4
 8001108:	4770      	bx	lr

0800110a <fnTIM2_IRQ>:
 800110a:	b480      	push	{r7}
 800110c:	af00      	add	r7, sp, #0
 800110e:	bf00      	nop
 8001110:	46bd      	mov	sp, r7
 8001112:	f85d 7b04 	ldr.w	r7, [sp], #4
 8001116:	4770      	bx	lr

08001118 <fnTIM3_IRQ>:
 8001118:	b480      	push	{r7}
 800111a:	af00      	add	r7, sp, #0
 800111c:	bf00      	nop
 800111e:	46bd      	mov	sp, r7
 8001120:	f85d 7b04 	ldr.w	r7, [sp], #4
 8001124:	4770      	bx	lr

08001126 <fnTIM4_IRQ>:
 8001126:	b480      	push	{r7}
 8001128:	af00      	add	r7, sp, #0
 800112a:	bf00      	nop
 800112c:	46bd      	mov	sp, r7
 800112e:	f85d 7b04 	ldr.w	r7, [sp], #4
 8001132:	4770      	bx	lr

08001134 <fnI2C1_EV_IRQ>:
 8001134:	b480      	push	{r7}
 8001136:	af00      	add	r7, sp, #0
 8001138:	bf00      	nop
 800113a:	46bd      	mov	sp, r7
 800113c:	f85d 7b04 	ldr.w	r7, [sp], #4
 8001140:	4770      	bx	lr

08001142 <fnI2C1_ER_IRQ>:
 8001142:	b480      	push	{r7}
 8001144:	af00      	add	r7, sp, #0
 8001146:	bf00      	nop
 8001148:	46bd      	mov	sp, r7
 800114a:	f85d 7b04 	ldr.w	r7, [sp], #4
 800114e:	4770      	bx	lr

08001150 <fnI2C2_EV_IRQ>:
 8001150:	b480      	push	{r7}
 8001152:	af00      	add	r7, sp, #0
 8001154:	bf00      	nop
 8001156:	46bd      	mov	sp, r7
 8001158:	f85d 7b04 	ldr.w	r7, [sp], #4
 800115c:	4770      	bx	lr

0800115e <fnI2C2_ER_IRQ>:
 800115e:	b480      	push	{r7}
 8001160:	af00      	add	r7, sp, #0
 8001162:	bf00      	nop
 8001164:	46bd      	mov	sp, r7
 8001166:	f85d 7b04 	ldr.w	r7, [sp], #4
 800116a:	4770      	bx	lr

0800116c <fnSPI1_IRQ>:
 800116c:	b480      	push	{r7}
 800116e:	af00      	add	r7, sp, #0
 8001170:	bf00      	nop
 8001172:	46bd      	mov	sp, r7
 8001174:	f85d 7b04 	ldr.w	r7, [sp], #4
 8001178:	4770      	bx	lr

0800117a <fnSPI2_IRQ>:
 800117a:	b480      	push	{r7}
 800117c:	af00      	add	r7, sp, #0
 800117e:	bf00      	nop
 8001180:	46bd      	mov	sp, r7
 8001182:	f85d 7b04 	ldr.w	r7, [sp], #4
 8001186:	4770      	bx	lr

08001188 <fnUSART1_IRQ>:
 8001188:	b480      	push	{r7}
 800118a:	af00      	add	r7, sp, #0
 800118c:	bf00      	nop
 800118e:	46bd      	mov	sp, r7
 8001190:	f85d 7b04 	ldr.w	r7, [sp], #4
 8001194:	4770      	bx	lr

08001196 <fnUSART2_IRQ>:
 8001196:	b480      	push	{r7}
 8001198:	af00      	add	r7, sp, #0
 800119a:	bf00      	nop
 800119c:	46bd      	mov	sp, r7
 800119e:	f85d 7b04 	ldr.w	r7, [sp], #4
 80011a2:	4770      	bx	lr

080011a4 <fnUSART3_IRQ>:
 80011a4:	b480      	push	{r7}
 80011a6:	af00      	add	r7, sp, #0
 80011a8:	bf00      	nop
 80011aa:	46bd      	mov	sp, r7
 80011ac:	f85d 7b04 	ldr.w	r7, [sp], #4
 80011b0:	4770      	bx	lr

080011b2 <fnEXTI_10_15_IRQ>:
 80011b2:	b480      	push	{r7}
 80011b4:	af00      	add	r7, sp, #0
 80011b6:	bf00      	nop
 80011b8:	46bd      	mov	sp, r7
 80011ba:	f85d 7b04 	ldr.w	r7, [sp], #4
 80011be:	4770      	bx	lr

080011c0 <fnRTC_ALARM_IRQ>:
 80011c0:	b480      	push	{r7}
 80011c2:	af00      	add	r7, sp, #0
 80011c4:	bf00      	nop
 80011c6:	46bd      	mov	sp, r7
 80011c8:	f85d 7b04 	ldr.w	r7, [sp], #4
 80011cc:	4770      	bx	lr

080011ce <fnSDMMC1_IRQ>:
 80011ce:	b480      	push	{r7}
 80011d0:	af00      	add	r7, sp, #0
 80011d2:	bf00      	nop
 80011d4:	46bd      	mov	sp, r7
 80011d6:	f85d 7b04 	ldr.w	r7, [sp], #4
 80011da:	4770      	bx	lr

080011dc <fnSPI3_IRQ>:
 80011dc:	b480      	push	{r7}
 80011de:	af00      	add	r7, sp, #0
 80011e0:	bf00      	nop
 80011e2:	46bd      	mov	sp, r7
 80011e4:	f85d 7b04 	ldr.w	r7, [sp], #4
 80011e8:	4770      	bx	lr

080011ea <fnUSART4_IRQ>:
 80011ea:	b480      	push	{r7}
 80011ec:	af00      	add	r7, sp, #0
 80011ee:	bf00      	nop
 80011f0:	46bd      	mov	sp, r7
 80011f2:	f85d 7b04 	ldr.w	r7, [sp], #4
 80011f6:	4770      	bx	lr

080011f8 <fnTIM6_IRQ>:
 80011f8:	b480      	push	{r7}
 80011fa:	af00      	add	r7, sp, #0
 80011fc:	bf00      	nop
 80011fe:	46bd      	mov	sp, r7
 8001200:	f85d 7b04 	ldr.w	r7, [sp], #4
 8001204:	4770      	bx	lr

08001206 <fnTIM7_IRQ>:
 8001206:	b480      	push	{r7}
 8001208:	af00      	add	r7, sp, #0
 800120a:	bf00      	nop
 800120c:	46bd      	mov	sp, r7
 800120e:	f85d 7b04 	ldr.w	r7, [sp], #4
 8001212:	4770      	bx	lr

08001214 <fnDMA_21_IRQ>:
 8001214:	b480      	push	{r7}
 8001216:	af00      	add	r7, sp, #0
 8001218:	bf00      	nop
 800121a:	46bd      	mov	sp, r7
 800121c:	f85d 7b04 	ldr.w	r7, [sp], #4
 8001220:	4770      	bx	lr

08001222 <fnDMA_22_IRQ>:
 8001222:	b480      	push	{r7}
 8001224:	af00      	add	r7, sp, #0
 8001226:	bf00      	nop
 8001228:	46bd      	mov	sp, r7
 800122a:	f85d 7b04 	ldr.w	r7, [sp], #4
 800122e:	4770      	bx	lr

08001230 <fnDMA_23_IRQ>:
 8001230:	b480      	push	{r7}
 8001232:	af00      	add	r7, sp, #0
 8001234:	bf00      	nop
 8001236:	46bd      	mov	sp, r7
 8001238:	f85d 7b04 	ldr.w	r7, [sp], #4
 800123c:	4770      	bx	lr

0800123e <fnDMA_24_IRQ>:
 800123e:	b480      	push	{r7}
 8001240:	af00      	add	r7, sp, #0
 8001242:	bf00      	nop
 8001244:	46bd      	mov	sp, r7
 8001246:	f85d 7b04 	ldr.w	r7, [sp], #4
 800124a:	4770      	bx	lr

0800124c <fnDMA_25_IRQ>:
 800124c:	b480      	push	{r7}
 800124e:	af00      	add	r7, sp, #0
 8001250:	bf00      	nop
 8001252:	46bd      	mov	sp, r7
 8001254:	f85d 7b04 	ldr.w	r7, [sp], #4
 8001258:	4770      	bx	lr

0800125a <fnCOMP_IRQ>:
 800125a:	b480      	push	{r7}
 800125c:	af00      	add	r7, sp, #0
 800125e:	bf00      	nop
 8001260:	46bd      	mov	sp, r7
 8001262:	f85d 7b04 	ldr.w	r7, [sp], #4
 8001266:	4770      	bx	lr

08001268 <fnLPTIM1_IRQ>:
 8001268:	b480      	push	{r7}
 800126a:	af00      	add	r7, sp, #0
 800126c:	bf00      	nop
 800126e:	46bd      	mov	sp, r7
 8001270:	f85d 7b04 	ldr.w	r7, [sp], #4
 8001274:	4770      	bx	lr

08001276 <fnLPTIM2_IRQ>:
 8001276:	b480      	push	{r7}
 8001278:	af00      	add	r7, sp, #0
 800127a:	bf00      	nop
 800127c:	46bd      	mov	sp, r7
 800127e:	f85d 7b04 	ldr.w	r7, [sp], #4
 8001282:	4770      	bx	lr

08001284 <fnUSB_FS_IRQ>:
 8001284:	b480      	push	{r7}
 8001286:	af00      	add	r7, sp, #0
 8001288:	bf00      	nop
 800128a:	46bd      	mov	sp, r7
 800128c:	f85d 7b04 	ldr.w	r7, [sp], #4
 8001290:	4770      	bx	lr

08001292 <fnDMA_26_IRQ>:
 8001292:	b480      	push	{r7}
 8001294:	af00      	add	r7, sp, #0
 8001296:	bf00      	nop
 8001298:	46bd      	mov	sp, r7
 800129a:	f85d 7b04 	ldr.w	r7, [sp], #4
 800129e:	4770      	bx	lr

080012a0 <fnDMA_27_IRQ>:
 80012a0:	b480      	push	{r7}
 80012a2:	af00      	add	r7, sp, #0
 80012a4:	bf00      	nop
 80012a6:	46bd      	mov	sp, r7
 80012a8:	f85d 7b04 	ldr.w	r7, [sp], #4
 80012ac:	4770      	bx	lr

080012ae <fnLPUART1_IRQ>:
 80012ae:	b480      	push	{r7}
 80012b0:	af00      	add	r7, sp, #0
 80012b2:	bf00      	nop
 80012b4:	46bd      	mov	sp, r7
 80012b6:	f85d 7b04 	ldr.w	r7, [sp], #4
 80012ba:	4770      	bx	lr

080012bc <fnQUADSPI_IRQ>:
 80012bc:	b480      	push	{r7}
 80012be:	af00      	add	r7, sp, #0
 80012c0:	bf00      	nop
 80012c2:	46bd      	mov	sp, r7
 80012c4:	f85d 7b04 	ldr.w	r7, [sp], #4
 80012c8:	4770      	bx	lr

080012ca <fnI2C3_EV_IRQ>:
 80012ca:	b480      	push	{r7}
 80012cc:	af00      	add	r7, sp, #0
 80012ce:	bf00      	nop
 80012d0:	46bd      	mov	sp, r7
 80012d2:	f85d 7b04 	ldr.w	r7, [sp], #4
 80012d6:	4770      	bx	lr

080012d8 <fnI2C3_ER_IRQ>:
 80012d8:	b480      	push	{r7}
 80012da:	af00      	add	r7, sp, #0
 80012dc:	bf00      	nop
 80012de:	46bd      	mov	sp, r7
 80012e0:	f85d 7b04 	ldr.w	r7, [sp], #4
 80012e4:	4770      	bx	lr

080012e6 <fnSAI_IRQ>:
 80012e6:	b480      	push	{r7}
 80012e8:	af00      	add	r7, sp, #0
 80012ea:	bf00      	nop
 80012ec:	46bd      	mov	sp, r7
 80012ee:	f85d 7b04 	ldr.w	r7, [sp], #4
 80012f2:	4770      	bx	lr

080012f4 <fnSWPMI1_IRQ>:
 80012f4:	b480      	push	{r7}
 80012f6:	af00      	add	r7, sp, #0
 80012f8:	bf00      	nop
 80012fa:	46bd      	mov	sp, r7
 80012fc:	f85d 7b04 	ldr.w	r7, [sp], #4
 8001300:	4770      	bx	lr

08001302 <fnTSC_IRQ>:
 8001302:	b480      	push	{r7}
 8001304:	af00      	add	r7, sp, #0
 8001306:	bf00      	nop
 8001308:	46bd      	mov	sp, r7
 800130a:	f85d 7b04 	ldr.w	r7, [sp], #4
 800130e:	4770      	bx	lr

08001310 <fnRNG_IRQ>:
 8001310:	b480      	push	{r7}
 8001312:	af00      	add	r7, sp, #0
 8001314:	bf00      	nop
 8001316:	46bd      	mov	sp, r7
 8001318:	f85d 7b04 	ldr.w	r7, [sp], #4
 800131c:	4770      	bx	lr

0800131e <fnFPU_IRQ>:
 800131e:	b480      	push	{r7}
 8001320:	af00      	add	r7, sp, #0
 8001322:	bf00      	nop
 8001324:	46bd      	mov	sp, r7
 8001326:	f85d 7b04 	ldr.w	r7, [sp], #4
 800132a:	4770      	bx	lr

0800132c <fnCRS_IRQ>:
 800132c:	b480      	push	{r7}
 800132e:	af00      	add	r7, sp, #0
 8001330:	bf00      	nop
 8001332:	46bd      	mov	sp, r7
 8001334:	f85d 7b04 	ldr.w	r7, [sp], #4
 8001338:	4770      	bx	lr

0800133a <fnEnaInt>:
 800133a:	b580      	push	{r7, lr}
 800133c:	b082      	sub	sp, #8
 800133e:	af00      	add	r7, sp, #0
 8001340:	4603      	mov	r3, r0
 8001342:	80fb      	strh	r3, [r7, #6]
 8001344:	b672      	cpsid	i
 8001346:	88fb      	ldrh	r3, [r7, #6]
 8001348:	4618      	mov	r0, r3
 800134a:	f7ff fd19 	bl	8000d80 <NVIC_EnableIRQ>
 800134e:	b662      	cpsie	i
 8001350:	bf00      	nop
 8001352:	3708      	adds	r7, #8
 8001354:	46bd      	mov	sp, r7
 8001356:	bd80      	pop	{r7, pc}

08001358 <fnDisInt>:
 8001358:	b580      	push	{r7, lr}
 800135a:	b082      	sub	sp, #8
 800135c:	af00      	add	r7, sp, #0
 800135e:	4603      	mov	r3, r0
 8001360:	80fb      	strh	r3, [r7, #6]
 8001362:	b672      	cpsid	i
 8001364:	88fb      	ldrh	r3, [r7, #6]
 8001366:	4618      	mov	r0, r3
 8001368:	f7ff fd0a 	bl	8000d80 <NVIC_EnableIRQ>
 800136c:	b662      	cpsie	i
 800136e:	bf00      	nop
 8001370:	3708      	adds	r7, #8
 8001372:	46bd      	mov	sp, r7
 8001374:	bd80      	pop	{r7, pc}

08001376 <fnSetIntPend>:
 8001376:	b580      	push	{r7, lr}
 8001378:	b082      	sub	sp, #8
 800137a:	af00      	add	r7, sp, #0
 800137c:	4603      	mov	r3, r0
 800137e:	80fb      	strh	r3, [r7, #6]
 8001380:	b672      	cpsid	i
 8001382:	88fb      	ldrh	r3, [r7, #6]
 8001384:	4618      	mov	r0, r3
 8001386:	f7ff fd13 	bl	8000db0 <NVIC_DisableIRQ>
 800138a:	b662      	cpsie	i
 800138c:	bf00      	nop
 800138e:	3708      	adds	r7, #8
 8001390:	46bd      	mov	sp, r7
 8001392:	bd80      	pop	{r7, pc}

08001394 <fnClrIntPend>:
 8001394:	b580      	push	{r7, lr}
 8001396:	b082      	sub	sp, #8
 8001398:	af00      	add	r7, sp, #0
 800139a:	4603      	mov	r3, r0
 800139c:	80fb      	strh	r3, [r7, #6]
 800139e:	b672      	cpsid	i
 80013a0:	88fb      	ldrh	r3, [r7, #6]
 80013a2:	4618      	mov	r0, r3
 80013a4:	f7ff fd1c 	bl	8000de0 <NVIC_ClearPendingIRQ>
 80013a8:	b662      	cpsie	i
 80013aa:	bf00      	nop
 80013ac:	3708      	adds	r7, #8
 80013ae:	46bd      	mov	sp, r7
 80013b0:	bd80      	pop	{r7, pc}

080013b2 <fnSetIntPriority>:
 80013b2:	b580      	push	{r7, lr}
 80013b4:	b082      	sub	sp, #8
 80013b6:	af00      	add	r7, sp, #0
 80013b8:	4603      	mov	r3, r0
 80013ba:	460a      	mov	r2, r1
 80013bc:	80fb      	strh	r3, [r7, #6]
 80013be:	4613      	mov	r3, r2
 80013c0:	717b      	strb	r3, [r7, #5]
 80013c2:	88fb      	ldrh	r3, [r7, #6]
 80013c4:	797a      	ldrb	r2, [r7, #5]
 80013c6:	4611      	mov	r1, r2
 80013c8:	4618      	mov	r0, r3
 80013ca:	f7ff fd21 	bl	8000e10 <NVIC_SetPriority>
 80013ce:	bf00      	nop
 80013d0:	3708      	adds	r7, #8
 80013d2:	46bd      	mov	sp, r7
 80013d4:	bd80      	pop	{r7, pc}
 80013d6:	bf00      	nop

080013d8 <timeDelay>:
  u32 ulValue;
  u16 uwValue;
  u08 ubValue;

void timeDelay (u32 uwDelay)
{
 80013d8:	b480      	push	{r7}
 80013da:	b085      	sub	sp, #20
 80013dc:	af00      	add	r7, sp, #0
 80013de:	6078      	str	r0, [r7, #4]
  for (int i = 0; i < uwDelay; i++)
 80013e0:	2300      	movs	r3, #0
 80013e2:	60fb      	str	r3, [r7, #12]
 80013e4:	e066      	b.n	80014b4 <timeDelay+0xdc>
  {
    nop100;
 80013e6:	bf00      	nop
 80013e8:	bf00      	nop
 80013ea:	bf00      	nop
 80013ec:	bf00      	nop
 80013ee:	bf00      	nop
 80013f0:	bf00      	nop
 80013f2:	bf00      	nop
 80013f4:	bf00      	nop
 80013f6:	bf00      	nop
 80013f8:	bf00      	nop
 80013fa:	bf00      	nop
 80013fc:	bf00      	nop
 80013fe:	bf00      	nop
 8001400:	bf00      	nop
 8001402:	bf00      	nop
 8001404:	bf00      	nop
 8001406:	bf00      	nop
 8001408:	bf00      	nop
 800140a:	bf00      	nop
 800140c:	bf00      	nop
 800140e:	bf00      	nop
 8001410:	bf00      	nop
 8001412:	bf00      	nop
 8001414:	bf00      	nop
 8001416:	bf00      	nop
 8001418:	bf00      	nop
 800141a:	bf00      	nop
 800141c:	bf00      	nop
 800141e:	bf00      	nop
 8001420:	bf00      	nop
 8001422:	bf00      	nop
 8001424:	bf00      	nop
 8001426:	bf00      	nop
 8001428:	bf00      	nop
 800142a:	bf00      	nop
 800142c:	bf00      	nop
 800142e:	bf00      	nop
 8001430:	bf00      	nop
 8001432:	bf00      	nop
 8001434:	bf00      	nop
 8001436:	bf00      	nop
 8001438:	bf00      	nop
 800143a:	bf00      	nop
 800143c:	bf00      	nop
 800143e:	bf00      	nop
 8001440:	bf00      	nop
 8001442:	bf00      	nop
 8001444:	bf00      	nop
 8001446:	bf00      	nop
 8001448:	bf00      	nop
 800144a:	bf00      	nop
 800144c:	bf00      	nop
 800144e:	bf00      	nop
 8001450:	bf00      	nop
 8001452:	bf00      	nop
 8001454:	bf00      	nop
 8001456:	bf00      	nop
 8001458:	bf00      	nop
 800145a:	bf00      	nop
 800145c:	bf00      	nop
 800145e:	bf00      	nop
 8001460:	bf00      	nop
 8001462:	bf00      	nop
 8001464:	bf00      	nop
 8001466:	bf00      	nop
 8001468:	bf00      	nop
 800146a:	bf00      	nop
 800146c:	bf00      	nop
 800146e:	bf00      	nop
 8001470:	bf00      	nop
 8001472:	bf00      	nop
 8001474:	bf00      	nop
 8001476:	bf00      	nop
 8001478:	bf00      	nop
 800147a:	bf00      	nop
 800147c:	bf00      	nop
 800147e:	bf00      	nop
 8001480:	bf00      	nop
 8001482:	bf00      	nop
 8001484:	bf00      	nop
 8001486:	bf00      	nop
 8001488:	bf00      	nop
 800148a:	bf00      	nop
 800148c:	bf00      	nop
 800148e:	bf00      	nop
 8001490:	bf00      	nop
 8001492:	bf00      	nop
 8001494:	bf00      	nop
 8001496:	bf00      	nop
 8001498:	bf00      	nop
 800149a:	bf00      	nop
 800149c:	bf00      	nop
 800149e:	bf00      	nop
 80014a0:	bf00      	nop
 80014a2:	bf00      	nop
 80014a4:	bf00      	nop
 80014a6:	bf00      	nop
 80014a8:	bf00      	nop
 80014aa:	bf00      	nop
 80014ac:	bf00      	nop
  for (int i = 0; i < uwDelay; i++)
 80014ae:	68fb      	ldr	r3, [r7, #12]
 80014b0:	3301      	adds	r3, #1
 80014b2:	60fb      	str	r3, [r7, #12]
 80014b4:	68fb      	ldr	r3, [r7, #12]
 80014b6:	687a      	ldr	r2, [r7, #4]
 80014b8:	429a      	cmp	r2, r3
 80014ba:	d894      	bhi.n	80013e6 <timeDelay+0xe>
  }
}
 80014bc:	bf00      	nop
 80014be:	bf00      	nop
 80014c0:	3714      	adds	r7, #20
 80014c2:	46bd      	mov	sp, r7
 80014c4:	f85d 7b04 	ldr.w	r7, [sp], #4
 80014c8:	4770      	bx	lr

080014ca <main>:

int main (void)
{
 80014ca:	b580      	push	{r7, lr}
 80014cc:	af00      	add	r7, sp, #0
  u32 uwDelay; //was a u16 changed to u32

  //--- Main Infinite Loop Entry Point
  while (1)
  {
    SET_PB00;
 80014ce:	4b07      	ldr	r3, [pc, #28]	; (80014ec <main+0x22>)
 80014d0:	2201      	movs	r2, #1
 80014d2:	601a      	str	r2, [r3, #0]
    timeDelay(100000);
 80014d4:	4806      	ldr	r0, [pc, #24]	; (80014f0 <main+0x26>)
 80014d6:	f7ff ff7f 	bl	80013d8 <timeDelay>
    CLR_PB00;
 80014da:	4b04      	ldr	r3, [pc, #16]	; (80014ec <main+0x22>)
 80014dc:	f44f 3280 	mov.w	r2, #65536	; 0x10000
 80014e0:	601a      	str	r2, [r3, #0]
    timeDelay(100000);
 80014e2:	4803      	ldr	r0, [pc, #12]	; (80014f0 <main+0x26>)
 80014e4:	f7ff ff78 	bl	80013d8 <timeDelay>
    SET_PB00;
 80014e8:	e7f1      	b.n	80014ce <main+0x4>
 80014ea:	bf00      	nop
 80014ec:	48000418 	.word	0x48000418
 80014f0:	000186a0 	.word	0x000186a0

080014f4 <ubInterruptConfigs>:
 80014f4:	0f0f0f0f 0f0f0f0f 0f0f0f0f 0f0f0f0f     ................
 8001504:	0f0f0f0f 0f0f0f0f 0f0f0f0f 0f0f0f0f     ................
 8001514:	0f0f0f0f 0f0f0f0f 0f0f0f0f 0f0f0f0f     ................
 8001524:	0f0f0f0f 0f0f0f0f 0f0f0f0f 0f0f0f0f     ................
 8001534:	0f0f0f0f 0f0f0f0f 0f0f0f0f 0f0f0f0f     ................
 8001544:	0f0f0f0f 0f0f0f0f 0f0f0f0f 0f0f0f0f     ................
 8001554:	0f0f0f0f                                ....
